
isodir/boot/snfos.kernel:     file format elf32-i386


Disassembly of section .text:

c0100000 <kernel_virtual_start>:
c0100000:	02 b0 ad 1b 03 00    	add    0x31bad(%eax),%dh
c0100006:	00 00                	add    %al,(%eax)
c0100008:	fb                   	sti    
c0100009:	4f                   	dec    %edi
c010000a:	52                   	push   %edx
c010000b:	e4 66                	in     $0x66,%al
c010000d:	90                   	nop
c010000e:	66 90                	xchg   %ax,%ax

c0100010 <deregister_tm_clones>:
c0100010:	b8 cf 90 12 c0       	mov    $0xc01290cf,%eax
c0100015:	2d cc 90 12 c0       	sub    $0xc01290cc,%eax
c010001a:	83 f8 06             	cmp    $0x6,%eax
c010001d:	76 1a                	jbe    c0100039 <deregister_tm_clones+0x29>
c010001f:	b8 00 00 00 00       	mov    $0x0,%eax
c0100024:	85 c0                	test   %eax,%eax
c0100026:	74 11                	je     c0100039 <deregister_tm_clones+0x29>
c0100028:	55                   	push   %ebp
c0100029:	89 e5                	mov    %esp,%ebp
c010002b:	83 ec 14             	sub    $0x14,%esp
c010002e:	68 cc 90 12 c0       	push   $0xc01290cc
c0100033:	ff d0                	call   *%eax
c0100035:	83 c4 10             	add    $0x10,%esp
c0100038:	c9                   	leave  
c0100039:	f3 c3                	repz ret 
c010003b:	90                   	nop
c010003c:	8d 74 26 00          	lea    0x0(%esi,%eiz,1),%esi

c0100040 <register_tm_clones>:
c0100040:	b8 cc 90 12 c0       	mov    $0xc01290cc,%eax
c0100045:	2d cc 90 12 c0       	sub    $0xc01290cc,%eax
c010004a:	c1 f8 02             	sar    $0x2,%eax
c010004d:	89 c2                	mov    %eax,%edx
c010004f:	c1 ea 1f             	shr    $0x1f,%edx
c0100052:	01 d0                	add    %edx,%eax
c0100054:	d1 f8                	sar    %eax
c0100056:	74 1b                	je     c0100073 <register_tm_clones+0x33>
c0100058:	ba 00 00 00 00       	mov    $0x0,%edx
c010005d:	85 d2                	test   %edx,%edx
c010005f:	74 12                	je     c0100073 <register_tm_clones+0x33>
c0100061:	55                   	push   %ebp
c0100062:	89 e5                	mov    %esp,%ebp
c0100064:	83 ec 10             	sub    $0x10,%esp
c0100067:	50                   	push   %eax
c0100068:	68 cc 90 12 c0       	push   $0xc01290cc
c010006d:	ff d2                	call   *%edx
c010006f:	83 c4 10             	add    $0x10,%esp
c0100072:	c9                   	leave  
c0100073:	f3 c3                	repz ret 
c0100075:	8d 74 26 00          	lea    0x0(%esi,%eiz,1),%esi
c0100079:	8d bc 27 00 00 00 00 	lea    0x0(%edi,%eiz,1),%edi

c0100080 <__do_global_dtors_aux>:
c0100080:	80 3d 9c a0 12 c0 00 	cmpb   $0x0,0xc012a09c
c0100087:	75 66                	jne    c01000ef <__do_global_dtors_aux+0x6f>
c0100089:	55                   	push   %ebp
c010008a:	a1 a0 a0 12 c0       	mov    0xc012a0a0,%eax
c010008f:	89 e5                	mov    %esp,%ebp
c0100091:	56                   	push   %esi
c0100092:	53                   	push   %ebx
c0100093:	bb c4 90 12 c0       	mov    $0xc01290c4,%ebx
c0100098:	be c0 90 12 c0       	mov    $0xc01290c0,%esi
c010009d:	81 eb c0 90 12 c0    	sub    $0xc01290c0,%ebx
c01000a3:	c1 fb 02             	sar    $0x2,%ebx
c01000a6:	83 eb 01             	sub    $0x1,%ebx
c01000a9:	39 d8                	cmp    %ebx,%eax
c01000ab:	73 17                	jae    c01000c4 <__do_global_dtors_aux+0x44>
c01000ad:	8d 76 00             	lea    0x0(%esi),%esi
c01000b0:	83 c0 01             	add    $0x1,%eax
c01000b3:	a3 a0 a0 12 c0       	mov    %eax,0xc012a0a0
c01000b8:	ff 14 86             	call   *(%esi,%eax,4)
c01000bb:	a1 a0 a0 12 c0       	mov    0xc012a0a0,%eax
c01000c0:	39 c3                	cmp    %eax,%ebx
c01000c2:	77 ec                	ja     c01000b0 <__do_global_dtors_aux+0x30>
c01000c4:	e8 47 ff ff ff       	call   c0100010 <deregister_tm_clones>
c01000c9:	b8 00 00 00 00       	mov    $0x0,%eax
c01000ce:	85 c0                	test   %eax,%eax
c01000d0:	74 10                	je     c01000e2 <__do_global_dtors_aux+0x62>
c01000d2:	83 ec 0c             	sub    $0xc,%esp
c01000d5:	68 8c 51 10 c0       	push   $0xc010518c
c01000da:	e8 21 ff ef 3f       	call   0 <ALIGN-0x1>
c01000df:	83 c4 10             	add    $0x10,%esp
c01000e2:	c6 05 9c a0 12 c0 01 	movb   $0x1,0xc012a09c
c01000e9:	8d 65 f8             	lea    -0x8(%ebp),%esp
c01000ec:	5b                   	pop    %ebx
c01000ed:	5e                   	pop    %esi
c01000ee:	5d                   	pop    %ebp
c01000ef:	f3 c3                	repz ret 
c01000f1:	eb 0d                	jmp    c0100100 <frame_dummy>
c01000f3:	90                   	nop
c01000f4:	90                   	nop
c01000f5:	90                   	nop
c01000f6:	90                   	nop
c01000f7:	90                   	nop
c01000f8:	90                   	nop
c01000f9:	90                   	nop
c01000fa:	90                   	nop
c01000fb:	90                   	nop
c01000fc:	90                   	nop
c01000fd:	90                   	nop
c01000fe:	90                   	nop
c01000ff:	90                   	nop

c0100100 <frame_dummy>:
c0100100:	55                   	push   %ebp
c0100101:	b8 00 00 00 00       	mov    $0x0,%eax
c0100106:	89 e5                	mov    %esp,%ebp
c0100108:	83 ec 08             	sub    $0x8,%esp
c010010b:	85 c0                	test   %eax,%eax
c010010d:	74 15                	je     c0100124 <frame_dummy+0x24>
c010010f:	83 ec 08             	sub    $0x8,%esp
c0100112:	68 a4 a0 12 c0       	push   $0xc012a0a4
c0100117:	68 8c 51 10 c0       	push   $0xc010518c
c010011c:	e8 df fe ef 3f       	call   0 <ALIGN-0x1>
c0100121:	83 c4 10             	add    $0x10,%esp
c0100124:	b8 c8 90 12 c0       	mov    $0xc01290c8,%eax
c0100129:	8b 10                	mov    (%eax),%edx
c010012b:	85 d2                	test   %edx,%edx
c010012d:	75 11                	jne    c0100140 <frame_dummy+0x40>
c010012f:	c9                   	leave  
c0100130:	e9 0b ff ff ff       	jmp    c0100040 <register_tm_clones>
c0100135:	8d 74 26 00          	lea    0x0(%esi,%eiz,1),%esi
c0100139:	8d bc 27 00 00 00 00 	lea    0x0(%edi,%eiz,1),%edi
c0100140:	ba 00 00 00 00       	mov    $0x0,%edx
c0100145:	85 d2                	test   %edx,%edx
c0100147:	74 e6                	je     c010012f <frame_dummy+0x2f>
c0100149:	83 ec 0c             	sub    $0xc,%esp
c010014c:	50                   	push   %eax
c010014d:	ff d2                	call   *%edx
c010014f:	83 c4 10             	add    $0x10,%esp
c0100152:	eb db                	jmp    c010012f <frame_dummy+0x2f>

c0100154 <_start>:
c0100154:	b9 00 80 10 00       	mov    $0x108000,%ecx
c0100159:	ba 03 00 00 00       	mov    $0x3,%edx

c010015e <add_mapping>:
c010015e:	81 fa f4 e0 12 00    	cmp    $0x12e0f4,%edx
c0100164:	7d 0d                	jge    c0100173 <enbable_paging>
c0100166:	89 11                	mov    %edx,(%ecx)
c0100168:	81 c2 00 10 00 00    	add    $0x1000,%edx
c010016e:	83 c1 04             	add    $0x4,%ecx
c0100171:	eb eb                	jmp    c010015e <add_mapping>

c0100173 <enbable_paging>:
c0100173:	b9 00 70 10 00       	mov    $0x107000,%ecx
c0100178:	0f 22 d9             	mov    %ecx,%cr3
c010017b:	0f 20 e1             	mov    %cr4,%ecx
c010017e:	83 c9 10             	or     $0x10,%ecx
c0100181:	0f 22 e1             	mov    %ecx,%cr4
c0100184:	0f 20 c1             	mov    %cr0,%ecx
c0100187:	81 c9 00 00 00 80    	or     $0x80000000,%ecx
c010018d:	0f 22 c1             	mov    %ecx,%cr0
c0100190:	8d 0d 98 01 10 c0    	lea    0xc0100198,%ecx
c0100196:	ff e1                	jmp    *%ecx

c0100198 <higher_half>:
c0100198:	c7 05 00 70 10 c0 00 	movl   $0x0,0xc0107000
c010019f:	00 00 00 
c01001a2:	0f 01 3d 00 00 00 00 	invlpg 0x0
c01001a9:	bc c0 e0 12 c0       	mov    $0xc012e0c0,%esp
c01001ae:	e8 a9 02 00 00       	call   c010045c <load_gdt>
c01001b3:	53                   	push   %ebx
c01001b4:	50                   	push   %eax
c01001b5:	e8 89 41 00 00       	call   c0104343 <_init>
c01001ba:	e8 b1 28 00 00       	call   c0102a70 <kernel_main>
c01001bf:	fa                   	cli    
c01001c0:	f4                   	hlt    
c01001c1:	eb fd                	jmp    c01001c0 <higher_half+0x28>
c01001c3:	66 90                	xchg   %ax,%ax
c01001c5:	66 90                	xchg   %ax,%ax
c01001c7:	66 90                	xchg   %ax,%ax
c01001c9:	66 90                	xchg   %ax,%ax
c01001cb:	66 90                	xchg   %ax,%ax
c01001cd:	66 90                	xchg   %ax,%ax
c01001cf:	90                   	nop

c01001d0 <update_cursor>:
c01001d0:	a1 cc e0 12 c0       	mov    0xc012e0cc,%eax
c01001d5:	ba d4 03 00 00       	mov    $0x3d4,%edx
c01001da:	8d 0c 80             	lea    (%eax,%eax,4),%ecx
c01001dd:	b8 0e 00 00 00       	mov    $0xe,%eax
c01001e2:	c1 e1 04             	shl    $0x4,%ecx
c01001e5:	03 0d c8 e0 12 c0    	add    0xc012e0c8,%ecx
c01001eb:	ee                   	out    %al,(%dx)
c01001ec:	89 c8                	mov    %ecx,%eax
c01001ee:	ba d5 03 00 00       	mov    $0x3d5,%edx
c01001f3:	c1 e8 08             	shr    $0x8,%eax
c01001f6:	ee                   	out    %al,(%dx)
c01001f7:	ba d4 03 00 00       	mov    $0x3d4,%edx
c01001fc:	b8 0f 00 00 00       	mov    $0xf,%eax
c0100201:	ee                   	out    %al,(%dx)
c0100202:	ba d5 03 00 00       	mov    $0x3d5,%edx
c0100207:	89 c8                	mov    %ecx,%eax
c0100209:	ee                   	out    %al,(%dx)
c010020a:	c3                   	ret    
c010020b:	90                   	nop
c010020c:	8d 74 26 00          	lea    0x0(%esi,%eiz,1),%esi

c0100210 <terminal_initialize>:
c0100210:	56                   	push   %esi
c0100211:	53                   	push   %ebx
c0100212:	b8 00 80 0b c0       	mov    $0xc00b8000,%eax
c0100217:	c7 05 cc e0 12 c0 00 	movl   $0x0,0xc012e0cc
c010021e:	00 00 00 
c0100221:	c7 05 c8 e0 12 c0 00 	movl   $0x0,0xc012e0c8
c0100228:	00 00 00 
c010022b:	c6 05 c4 e0 12 c0 07 	movb   $0x7,0xc012e0c4
c0100232:	c7 05 c0 e0 12 c0 00 	movl   $0xc00b8000,0xc012e0c0
c0100239:	80 0b c0 
c010023c:	8d 74 26 00          	lea    0x0(%esi,%eiz,1),%esi
c0100240:	8d 90 a0 00 00 00    	lea    0xa0(%eax),%edx
c0100246:	8d 76 00             	lea    0x0(%esi),%esi
c0100249:	8d bc 27 00 00 00 00 	lea    0x0(%edi,%eiz,1),%edi
c0100250:	b9 20 07 00 00       	mov    $0x720,%ecx
c0100255:	83 c0 02             	add    $0x2,%eax
c0100258:	66 89 48 fe          	mov    %cx,-0x2(%eax)
c010025c:	39 d0                	cmp    %edx,%eax
c010025e:	75 f0                	jne    c0100250 <terminal_initialize+0x40>
c0100260:	3d a0 8f 0b c0       	cmp    $0xc00b8fa0,%eax
c0100265:	75 d9                	jne    c0100240 <terminal_initialize+0x30>
c0100267:	be d4 03 00 00       	mov    $0x3d4,%esi
c010026c:	b8 0e 00 00 00       	mov    $0xe,%eax
c0100271:	89 f2                	mov    %esi,%edx
c0100273:	ee                   	out    %al,(%dx)
c0100274:	31 c9                	xor    %ecx,%ecx
c0100276:	bb d5 03 00 00       	mov    $0x3d5,%ebx
c010027b:	89 c8                	mov    %ecx,%eax
c010027d:	89 da                	mov    %ebx,%edx
c010027f:	ee                   	out    %al,(%dx)
c0100280:	b8 0f 00 00 00       	mov    $0xf,%eax
c0100285:	89 f2                	mov    %esi,%edx
c0100287:	ee                   	out    %al,(%dx)
c0100288:	89 c8                	mov    %ecx,%eax
c010028a:	89 da                	mov    %ebx,%edx
c010028c:	ee                   	out    %al,(%dx)
c010028d:	5b                   	pop    %ebx
c010028e:	5e                   	pop    %esi
c010028f:	c3                   	ret    

c0100290 <terminal_setcolor>:
c0100290:	8b 44 24 04          	mov    0x4(%esp),%eax
c0100294:	a2 c4 e0 12 c0       	mov    %al,0xc012e0c4
c0100299:	c3                   	ret    
c010029a:	8d b6 00 00 00 00    	lea    0x0(%esi),%esi

c01002a0 <inc_terminal_row>:
c01002a0:	a1 cc e0 12 c0       	mov    0xc012e0cc,%eax
c01002a5:	83 c0 01             	add    $0x1,%eax
c01002a8:	83 f8 19             	cmp    $0x19,%eax
c01002ab:	74 06                	je     c01002b3 <inc_terminal_row+0x13>
c01002ad:	a3 cc e0 12 c0       	mov    %eax,0xc012e0cc
c01002b2:	c3                   	ret    
c01002b3:	56                   	push   %esi
c01002b4:	8b 35 c0 e0 12 c0    	mov    0xc012e0c0,%esi
c01002ba:	53                   	push   %ebx
c01002bb:	c7 05 cc e0 12 c0 18 	movl   $0x18,0xc012e0cc
c01002c2:	00 00 00 
c01002c5:	8d 9e 00 0f 00 00    	lea    0xf00(%esi),%ebx
c01002cb:	89 f0                	mov    %esi,%eax
c01002cd:	8d 76 00             	lea    0x0(%esi),%esi
c01002d0:	8d 88 a0 00 00 00    	lea    0xa0(%eax),%ecx
c01002d6:	8d 76 00             	lea    0x0(%esi),%esi
c01002d9:	8d bc 27 00 00 00 00 	lea    0x0(%edi,%eiz,1),%edi
c01002e0:	0f b7 90 a0 00 00 00 	movzwl 0xa0(%eax),%edx
c01002e7:	83 c0 02             	add    $0x2,%eax
c01002ea:	66 89 50 fe          	mov    %dx,-0x2(%eax)
c01002ee:	39 c8                	cmp    %ecx,%eax
c01002f0:	75 ee                	jne    c01002e0 <inc_terminal_row+0x40>
c01002f2:	39 c3                	cmp    %eax,%ebx
c01002f4:	75 da                	jne    c01002d0 <inc_terminal_row+0x30>
c01002f6:	0f b6 15 c4 e0 12 c0 	movzbl 0xc012e0c4,%edx
c01002fd:	8d 86 a0 0f 00 00    	lea    0xfa0(%esi),%eax
c0100303:	c1 e2 08             	shl    $0x8,%edx
c0100306:	83 ca 20             	or     $0x20,%edx
c0100309:	8d b4 26 00 00 00 00 	lea    0x0(%esi,%eiz,1),%esi
c0100310:	66 89 13             	mov    %dx,(%ebx)
c0100313:	83 c3 02             	add    $0x2,%ebx
c0100316:	39 d8                	cmp    %ebx,%eax
c0100318:	75 f6                	jne    c0100310 <inc_terminal_row+0x70>
c010031a:	5b                   	pop    %ebx
c010031b:	5e                   	pop    %esi
c010031c:	c3                   	ret    
c010031d:	8d 76 00             	lea    0x0(%esi),%esi

c0100320 <terminal_putentryat>:
c0100320:	0f b6 54 24 08       	movzbl 0x8(%esp),%edx
c0100325:	8b 44 24 10          	mov    0x10(%esp),%eax
c0100329:	8d 04 80             	lea    (%eax,%eax,4),%eax
c010032c:	89 d1                	mov    %edx,%ecx
c010032e:	0f b6 54 24 04       	movzbl 0x4(%esp),%edx
c0100333:	c1 e1 08             	shl    $0x8,%ecx
c0100336:	c1 e0 04             	shl    $0x4,%eax
c0100339:	03 44 24 0c          	add    0xc(%esp),%eax
c010033d:	09 ca                	or     %ecx,%edx
c010033f:	8b 0d c0 e0 12 c0    	mov    0xc012e0c0,%ecx
c0100345:	66 89 14 41          	mov    %dx,(%ecx,%eax,2)
c0100349:	c3                   	ret    
c010034a:	8d b6 00 00 00 00    	lea    0x0(%esi),%esi

c0100350 <terminal_putchar>:
c0100350:	56                   	push   %esi
c0100351:	53                   	push   %ebx
c0100352:	8b 5c 24 0c          	mov    0xc(%esp),%ebx
c0100356:	80 fb 0a             	cmp    $0xa,%bl
c0100359:	74 65                	je     c01003c0 <terminal_putchar+0x70>
c010035b:	a1 cc e0 12 c0       	mov    0xc012e0cc,%eax
c0100360:	8b 15 c8 e0 12 c0    	mov    0xc012e0c8,%edx
c0100366:	0f b6 db             	movzbl %bl,%ebx
c0100369:	8d 0c 80             	lea    (%eax,%eax,4),%ecx
c010036c:	0f b6 05 c4 e0 12 c0 	movzbl 0xc012e0c4,%eax
c0100373:	c1 e1 04             	shl    $0x4,%ecx
c0100376:	8d 34 0a             	lea    (%edx,%ecx,1),%esi
c0100379:	c1 e0 08             	shl    $0x8,%eax
c010037c:	09 c3                	or     %eax,%ebx
c010037e:	a1 c0 e0 12 c0       	mov    0xc012e0c0,%eax
c0100383:	66 89 1c 70          	mov    %bx,(%eax,%esi,2)
c0100387:	8d 42 01             	lea    0x1(%edx),%eax
c010038a:	83 f8 50             	cmp    $0x50,%eax
c010038d:	a3 c8 e0 12 c0       	mov    %eax,0xc012e0c8
c0100392:	74 2c                	je     c01003c0 <terminal_putchar+0x70>
c0100394:	be d4 03 00 00       	mov    $0x3d4,%esi
c0100399:	01 c1                	add    %eax,%ecx
c010039b:	b8 0e 00 00 00       	mov    $0xe,%eax
c01003a0:	89 f2                	mov    %esi,%edx
c01003a2:	ee                   	out    %al,(%dx)
c01003a3:	bb d5 03 00 00       	mov    $0x3d5,%ebx
c01003a8:	89 c8                	mov    %ecx,%eax
c01003aa:	c1 e8 08             	shr    $0x8,%eax
c01003ad:	89 da                	mov    %ebx,%edx
c01003af:	ee                   	out    %al,(%dx)
c01003b0:	b8 0f 00 00 00       	mov    $0xf,%eax
c01003b5:	89 f2                	mov    %esi,%edx
c01003b7:	ee                   	out    %al,(%dx)
c01003b8:	89 c8                	mov    %ecx,%eax
c01003ba:	89 da                	mov    %ebx,%edx
c01003bc:	ee                   	out    %al,(%dx)
c01003bd:	5b                   	pop    %ebx
c01003be:	5e                   	pop    %esi
c01003bf:	c3                   	ret    
c01003c0:	c7 05 c8 e0 12 c0 00 	movl   $0x0,0xc012e0c8
c01003c7:	00 00 00 
c01003ca:	e8 d1 fe ff ff       	call   c01002a0 <inc_terminal_row>
c01003cf:	a1 cc e0 12 c0       	mov    0xc012e0cc,%eax
c01003d4:	8d 0c 80             	lea    (%eax,%eax,4),%ecx
c01003d7:	31 c0                	xor    %eax,%eax
c01003d9:	c1 e1 04             	shl    $0x4,%ecx
c01003dc:	eb b6                	jmp    c0100394 <terminal_putchar+0x44>
c01003de:	66 90                	xchg   %ax,%ax

c01003e0 <terminal_write>:
c01003e0:	56                   	push   %esi
c01003e1:	53                   	push   %ebx
c01003e2:	8b 44 24 10          	mov    0x10(%esp),%eax
c01003e6:	8b 5c 24 0c          	mov    0xc(%esp),%ebx
c01003ea:	85 c0                	test   %eax,%eax
c01003ec:	8d 34 03             	lea    (%ebx,%eax,1),%esi
c01003ef:	74 20                	je     c0100411 <terminal_write+0x31>
c01003f1:	eb 0d                	jmp    c0100400 <terminal_write+0x20>
c01003f3:	90                   	nop
c01003f4:	90                   	nop
c01003f5:	90                   	nop
c01003f6:	90                   	nop
c01003f7:	90                   	nop
c01003f8:	90                   	nop
c01003f9:	90                   	nop
c01003fa:	90                   	nop
c01003fb:	90                   	nop
c01003fc:	90                   	nop
c01003fd:	90                   	nop
c01003fe:	90                   	nop
c01003ff:	90                   	nop
c0100400:	0f be 03             	movsbl (%ebx),%eax
c0100403:	83 c3 01             	add    $0x1,%ebx
c0100406:	50                   	push   %eax
c0100407:	e8 44 ff ff ff       	call   c0100350 <terminal_putchar>
c010040c:	39 f3                	cmp    %esi,%ebx
c010040e:	58                   	pop    %eax
c010040f:	75 ef                	jne    c0100400 <terminal_write+0x20>
c0100411:	5b                   	pop    %ebx
c0100412:	5e                   	pop    %esi
c0100413:	c3                   	ret    
c0100414:	8d b6 00 00 00 00    	lea    0x0(%esi),%esi
c010041a:	8d bf 00 00 00 00    	lea    0x0(%edi),%edi

c0100420 <terminal_writestring>:
c0100420:	56                   	push   %esi
c0100421:	53                   	push   %ebx
c0100422:	83 ec 10             	sub    $0x10,%esp
c0100425:	8b 5c 24 1c          	mov    0x1c(%esp),%ebx
c0100429:	53                   	push   %ebx
c010042a:	e8 61 3a 00 00       	call   c0103e90 <strlen>
c010042f:	83 c4 10             	add    $0x10,%esp
c0100432:	85 c0                	test   %eax,%eax
c0100434:	8d 34 03             	lea    (%ebx,%eax,1),%esi
c0100437:	74 1d                	je     c0100456 <terminal_writestring+0x36>
c0100439:	8d b4 26 00 00 00 00 	lea    0x0(%esi,%eiz,1),%esi
c0100440:	0f be 03             	movsbl (%ebx),%eax
c0100443:	83 ec 0c             	sub    $0xc,%esp
c0100446:	83 c3 01             	add    $0x1,%ebx
c0100449:	50                   	push   %eax
c010044a:	e8 01 ff ff ff       	call   c0100350 <terminal_putchar>
c010044f:	83 c4 10             	add    $0x10,%esp
c0100452:	39 f3                	cmp    %esi,%ebx
c0100454:	75 ea                	jne    c0100440 <terminal_writestring+0x20>
c0100456:	83 c4 04             	add    $0x4,%esp
c0100459:	5b                   	pop    %ebx
c010045a:	5e                   	pop    %esi
c010045b:	c3                   	ret    

c010045c <load_gdt>:
c010045c:	0f 01 15 30 90 12 c0 	lgdtl  0xc0129030
c0100463:	ea 6a 04 10 c0 08 00 	ljmp   $0x8,$0xc010046a

c010046a <load_kernel>:
c010046a:	66 b9 10 00          	mov    $0x10,%cx
c010046e:	8e d1                	mov    %ecx,%ss
c0100470:	66 b9 23 00          	mov    $0x23,%cx
c0100474:	8e d9                	mov    %ecx,%ds
c0100476:	8e c1                	mov    %ecx,%es
c0100478:	8e e1                	mov    %ecx,%fs
c010047a:	8e e9                	mov    %ecx,%gs
c010047c:	b9 36 90 12 c0       	mov    $0xc0129036,%ecx
c0100481:	ba 28 90 12 c0       	mov    $0xc0129028,%edx
c0100486:	66 89 4a 02          	mov    %cx,0x2(%edx)
c010048a:	c1 e9 10             	shr    $0x10,%ecx
c010048d:	88 4a 04             	mov    %cl,0x4(%edx)
c0100490:	88 6a 07             	mov    %ch,0x7(%edx)
c0100493:	b9 3a 90 12 c0       	mov    $0xc012903a,%ecx
c0100498:	c7 01 fc ff bf ff    	movl   $0xffbffffc,(%ecx)
c010049e:	66 b9 28 00          	mov    $0x28,%cx
c01004a2:	0f 00 d9             	ltr    %cx
c01004a5:	c3                   	ret    
c01004a6:	66 90                	xchg   %ax,%ax
c01004a8:	66 90                	xchg   %ax,%ax
c01004aa:	66 90                	xchg   %ax,%ax
c01004ac:	66 90                	xchg   %ax,%ax
c01004ae:	66 90                	xchg   %ax,%ax

c01004b0 <PIC_sendEOI>:
c01004b0:	80 7c 24 04 07       	cmpb   $0x7,0x4(%esp)
c01004b5:	76 07                	jbe    c01004be <PIC_sendEOI+0xe>
c01004b7:	b8 20 00 00 00       	mov    $0x20,%eax
c01004bc:	e6 a0                	out    %al,$0xa0
c01004be:	b8 20 00 00 00       	mov    $0x20,%eax
c01004c3:	e6 20                	out    %al,$0x20
c01004c5:	c3                   	ret    
c01004c6:	8d 76 00             	lea    0x0(%esi),%esi
c01004c9:	8d bc 27 00 00 00 00 	lea    0x0(%edi,%eiz,1),%edi

c01004d0 <PIC_remap>:
c01004d0:	e4 21                	in     $0x21,%al
c01004d2:	89 c1                	mov    %eax,%ecx
c01004d4:	e4 a1                	in     $0xa1,%al
c01004d6:	89 c2                	mov    %eax,%edx
c01004d8:	b8 11 00 00 00       	mov    $0x11,%eax
c01004dd:	e6 20                	out    %al,$0x20
c01004df:	31 c0                	xor    %eax,%eax
c01004e1:	e6 80                	out    %al,$0x80
c01004e3:	b8 11 00 00 00       	mov    $0x11,%eax
c01004e8:	e6 a0                	out    %al,$0xa0
c01004ea:	31 c0                	xor    %eax,%eax
c01004ec:	e6 80                	out    %al,$0x80
c01004ee:	8b 44 24 04          	mov    0x4(%esp),%eax
c01004f2:	e6 21                	out    %al,$0x21
c01004f4:	31 c0                	xor    %eax,%eax
c01004f6:	e6 80                	out    %al,$0x80
c01004f8:	8b 44 24 08          	mov    0x8(%esp),%eax
c01004fc:	e6 a1                	out    %al,$0xa1
c01004fe:	31 c0                	xor    %eax,%eax
c0100500:	e6 80                	out    %al,$0x80
c0100502:	b8 04 00 00 00       	mov    $0x4,%eax
c0100507:	e6 21                	out    %al,$0x21
c0100509:	31 c0                	xor    %eax,%eax
c010050b:	e6 80                	out    %al,$0x80
c010050d:	b8 02 00 00 00       	mov    $0x2,%eax
c0100512:	e6 a1                	out    %al,$0xa1
c0100514:	31 c0                	xor    %eax,%eax
c0100516:	e6 80                	out    %al,$0x80
c0100518:	b8 01 00 00 00       	mov    $0x1,%eax
c010051d:	e6 21                	out    %al,$0x21
c010051f:	31 c0                	xor    %eax,%eax
c0100521:	e6 80                	out    %al,$0x80
c0100523:	b8 01 00 00 00       	mov    $0x1,%eax
c0100528:	e6 a1                	out    %al,$0xa1
c010052a:	31 c0                	xor    %eax,%eax
c010052c:	e6 80                	out    %al,$0x80
c010052e:	89 c8                	mov    %ecx,%eax
c0100530:	e6 21                	out    %al,$0x21
c0100532:	89 d0                	mov    %edx,%eax
c0100534:	e6 a1                	out    %al,$0xa1
c0100536:	c3                   	ret    
c0100537:	89 f6                	mov    %esi,%esi
c0100539:	8d bc 27 00 00 00 00 	lea    0x0(%edi,%eiz,1),%edi

c0100540 <IRQ_set_mask>:
c0100540:	53                   	push   %ebx
c0100541:	8b 44 24 08          	mov    0x8(%esp),%eax
c0100545:	3c 07                	cmp    $0x7,%al
c0100547:	76 17                	jbe    c0100560 <IRQ_set_mask+0x20>
c0100549:	8d 48 f8             	lea    -0x8(%eax),%ecx
c010054c:	ba a1 00 00 00       	mov    $0xa1,%edx
c0100551:	bb 01 00 00 00       	mov    $0x1,%ebx
c0100556:	d3 e3                	shl    %cl,%ebx
c0100558:	ec                   	in     (%dx),%al
c0100559:	09 d8                	or     %ebx,%eax
c010055b:	ee                   	out    %al,(%dx)
c010055c:	5b                   	pop    %ebx
c010055d:	c3                   	ret    
c010055e:	66 90                	xchg   %ax,%ax
c0100560:	89 c1                	mov    %eax,%ecx
c0100562:	ba 21 00 00 00       	mov    $0x21,%edx
c0100567:	eb e8                	jmp    c0100551 <IRQ_set_mask+0x11>
c0100569:	8d b4 26 00 00 00 00 	lea    0x0(%esi,%eiz,1),%esi

c0100570 <IRQ_clear_mask>:
c0100570:	53                   	push   %ebx
c0100571:	8b 44 24 08          	mov    0x8(%esp),%eax
c0100575:	3c 07                	cmp    $0x7,%al
c0100577:	76 17                	jbe    c0100590 <IRQ_clear_mask+0x20>
c0100579:	8d 48 f8             	lea    -0x8(%eax),%ecx
c010057c:	ba a1 00 00 00       	mov    $0xa1,%edx
c0100581:	bb fe ff ff ff       	mov    $0xfffffffe,%ebx
c0100586:	d3 c3                	rol    %cl,%ebx
c0100588:	ec                   	in     (%dx),%al
c0100589:	21 d8                	and    %ebx,%eax
c010058b:	ee                   	out    %al,(%dx)
c010058c:	5b                   	pop    %ebx
c010058d:	c3                   	ret    
c010058e:	66 90                	xchg   %ax,%ax
c0100590:	89 c1                	mov    %eax,%ecx
c0100592:	ba 21 00 00 00       	mov    $0x21,%edx
c0100597:	eb e8                	jmp    c0100581 <IRQ_clear_mask+0x11>
c0100599:	8d b4 26 00 00 00 00 	lea    0x0(%esi,%eiz,1),%esi

c01005a0 <read_scan_code>:
c01005a0:	e4 60                	in     $0x60,%al
c01005a2:	c3                   	ret    
c01005a3:	8d b6 00 00 00 00    	lea    0x0(%esi),%esi
c01005a9:	8d bc 27 00 00 00 00 	lea    0x0(%edi,%eiz,1),%edi

c01005b0 <init_key_code_map>:
c01005b0:	c6 05 00 a0 12 c0 00 	movb   $0x0,0xc012a000
c01005b7:	c6 05 01 a0 12 c0 1b 	movb   $0x1b,0xc012a001
c01005be:	c6 05 02 a0 12 c0 31 	movb   $0x31,0xc012a002
c01005c5:	c6 05 03 a0 12 c0 32 	movb   $0x32,0xc012a003
c01005cc:	c6 05 04 a0 12 c0 33 	movb   $0x33,0xc012a004
c01005d3:	c6 05 05 a0 12 c0 34 	movb   $0x34,0xc012a005
c01005da:	c6 05 06 a0 12 c0 35 	movb   $0x35,0xc012a006
c01005e1:	c6 05 07 a0 12 c0 36 	movb   $0x36,0xc012a007
c01005e8:	c6 05 08 a0 12 c0 37 	movb   $0x37,0xc012a008
c01005ef:	c6 05 09 a0 12 c0 38 	movb   $0x38,0xc012a009
c01005f6:	c6 05 0a a0 12 c0 39 	movb   $0x39,0xc012a00a
c01005fd:	c6 05 0b a0 12 c0 30 	movb   $0x30,0xc012a00b
c0100604:	c6 05 0c a0 12 c0 2d 	movb   $0x2d,0xc012a00c
c010060b:	c6 05 0d a0 12 c0 3d 	movb   $0x3d,0xc012a00d
c0100612:	c6 05 0e a0 12 c0 08 	movb   $0x8,0xc012a00e
c0100619:	c6 05 0f a0 12 c0 09 	movb   $0x9,0xc012a00f
c0100620:	c6 05 10 a0 12 c0 71 	movb   $0x71,0xc012a010
c0100627:	c6 05 11 a0 12 c0 77 	movb   $0x77,0xc012a011
c010062e:	c6 05 12 a0 12 c0 65 	movb   $0x65,0xc012a012
c0100635:	c6 05 13 a0 12 c0 72 	movb   $0x72,0xc012a013
c010063c:	c6 05 14 a0 12 c0 74 	movb   $0x74,0xc012a014
c0100643:	c6 05 15 a0 12 c0 79 	movb   $0x79,0xc012a015
c010064a:	c6 05 16 a0 12 c0 75 	movb   $0x75,0xc012a016
c0100651:	c6 05 17 a0 12 c0 69 	movb   $0x69,0xc012a017
c0100658:	c6 05 18 a0 12 c0 6f 	movb   $0x6f,0xc012a018
c010065f:	c6 05 19 a0 12 c0 70 	movb   $0x70,0xc012a019
c0100666:	c6 05 1a a0 12 c0 5b 	movb   $0x5b,0xc012a01a
c010066d:	c6 05 1b a0 12 c0 5d 	movb   $0x5d,0xc012a01b
c0100674:	c6 05 1c a0 12 c0 0a 	movb   $0xa,0xc012a01c
c010067b:	c6 05 1d a0 12 c0 00 	movb   $0x0,0xc012a01d
c0100682:	c6 05 1e a0 12 c0 61 	movb   $0x61,0xc012a01e
c0100689:	c6 05 1f a0 12 c0 73 	movb   $0x73,0xc012a01f
c0100690:	c6 05 20 a0 12 c0 64 	movb   $0x64,0xc012a020
c0100697:	c6 05 21 a0 12 c0 66 	movb   $0x66,0xc012a021
c010069e:	c6 05 22 a0 12 c0 67 	movb   $0x67,0xc012a022
c01006a5:	c6 05 23 a0 12 c0 68 	movb   $0x68,0xc012a023
c01006ac:	c6 05 24 a0 12 c0 6a 	movb   $0x6a,0xc012a024
c01006b3:	c6 05 25 a0 12 c0 6b 	movb   $0x6b,0xc012a025
c01006ba:	c6 05 26 a0 12 c0 6c 	movb   $0x6c,0xc012a026
c01006c1:	c6 05 27 a0 12 c0 3b 	movb   $0x3b,0xc012a027
c01006c8:	c6 05 28 a0 12 c0 27 	movb   $0x27,0xc012a028
c01006cf:	c6 05 29 a0 12 c0 60 	movb   $0x60,0xc012a029
c01006d6:	c6 05 2a a0 12 c0 00 	movb   $0x0,0xc012a02a
c01006dd:	c6 05 2b a0 12 c0 5c 	movb   $0x5c,0xc012a02b
c01006e4:	c6 05 2c a0 12 c0 7a 	movb   $0x7a,0xc012a02c
c01006eb:	c6 05 2d a0 12 c0 78 	movb   $0x78,0xc012a02d
c01006f2:	c6 05 2e a0 12 c0 63 	movb   $0x63,0xc012a02e
c01006f9:	c6 05 2f a0 12 c0 76 	movb   $0x76,0xc012a02f
c0100700:	c6 05 30 a0 12 c0 62 	movb   $0x62,0xc012a030
c0100707:	c6 05 31 a0 12 c0 6e 	movb   $0x6e,0xc012a031
c010070e:	c6 05 32 a0 12 c0 6d 	movb   $0x6d,0xc012a032
c0100715:	c6 05 33 a0 12 c0 2c 	movb   $0x2c,0xc012a033
c010071c:	c6 05 34 a0 12 c0 2e 	movb   $0x2e,0xc012a034
c0100723:	c6 05 35 a0 12 c0 2f 	movb   $0x2f,0xc012a035
c010072a:	c6 05 36 a0 12 c0 00 	movb   $0x0,0xc012a036
c0100731:	c6 05 37 a0 12 c0 2a 	movb   $0x2a,0xc012a037
c0100738:	c6 05 38 a0 12 c0 00 	movb   $0x0,0xc012a038
c010073f:	c6 05 39 a0 12 c0 20 	movb   $0x20,0xc012a039
c0100746:	c6 05 3a a0 12 c0 00 	movb   $0x0,0xc012a03a
c010074d:	c3                   	ret    
c010074e:	66 90                	xchg   %ax,%ax

c0100750 <print_eax>:
c0100750:	83 ec 14             	sub    $0x14,%esp
c0100753:	ff 74 24 18          	pushl  0x18(%esp)
c0100757:	68 00 50 10 c0       	push   $0xc0105000
c010075c:	e8 af 23 00 00       	call   c0102b10 <printf>
c0100761:	83 c4 1c             	add    $0x1c,%esp
c0100764:	c3                   	ret    
c0100765:	8d 74 26 00          	lea    0x0(%esi,%eiz,1),%esi
c0100769:	8d bc 27 00 00 00 00 	lea    0x0(%edi,%eiz,1),%edi

c0100770 <print_edx>:
c0100770:	83 ec 14             	sub    $0x14,%esp
c0100773:	89 d0                	mov    %edx,%eax
c0100775:	50                   	push   %eax
c0100776:	68 0c 50 10 c0       	push   $0xc010500c
c010077b:	e8 90 23 00 00       	call   c0102b10 <printf>
c0100780:	83 c4 1c             	add    $0x1c,%esp
c0100783:	c3                   	ret    
c0100784:	8d b6 00 00 00 00    	lea    0x0(%esi),%esi
c010078a:	8d bf 00 00 00 00    	lea    0x0(%edi),%edi

c0100790 <interupt_handler>:
c0100790:	56                   	push   %esi
c0100791:	53                   	push   %ebx
c0100792:	83 ec 04             	sub    $0x4,%esp
c0100795:	8b 5c 24 2c          	mov    0x2c(%esp),%ebx
c0100799:	8b 54 24 30          	mov    0x30(%esp),%edx
c010079d:	8b 44 24 28          	mov    0x28(%esp),%eax
c01007a1:	8d 4b e0             	lea    -0x20(%ebx),%ecx
c01007a4:	83 f9 0f             	cmp    $0xf,%ecx
c01007a7:	77 37                	ja     c01007e0 <interupt_handler+0x50>
c01007a9:	83 fb 21             	cmp    $0x21,%ebx
c01007ac:	74 72                	je     c0100820 <interupt_handler+0x90>
c01007ae:	52                   	push   %edx
c01007af:	50                   	push   %eax
c01007b0:	53                   	push   %ebx
c01007b1:	68 1b 50 10 c0       	push   $0xc010501b
c01007b6:	83 eb 20             	sub    $0x20,%ebx
c01007b9:	e8 52 23 00 00       	call   c0102b10 <printf>
c01007be:	83 c4 10             	add    $0x10,%esp
c01007c1:	80 fb 07             	cmp    $0x7,%bl
c01007c4:	76 07                	jbe    c01007cd <interupt_handler+0x3d>
c01007c6:	b8 20 00 00 00       	mov    $0x20,%eax
c01007cb:	e6 a0                	out    %al,$0xa0
c01007cd:	b8 20 00 00 00       	mov    $0x20,%eax
c01007d2:	e6 20                	out    %al,$0x20
c01007d4:	83 c4 04             	add    $0x4,%esp
c01007d7:	5b                   	pop    %ebx
c01007d8:	5e                   	pop    %esi
c01007d9:	c3                   	ret    
c01007da:	8d b6 00 00 00 00    	lea    0x0(%esi),%esi
c01007e0:	81 fb ff 00 00 00    	cmp    $0xff,%ebx
c01007e6:	74 ec                	je     c01007d4 <interupt_handler+0x44>
c01007e8:	83 fb 0e             	cmp    $0xe,%ebx
c01007eb:	8b 4c 24 34          	mov    0x34(%esp),%ecx
c01007ef:	74 5f                	je     c0100850 <interupt_handler+0xc0>
c01007f1:	89 5c 24 14          	mov    %ebx,0x14(%esp)
c01007f5:	89 4c 24 20          	mov    %ecx,0x20(%esp)
c01007f9:	89 54 24 1c          	mov    %edx,0x1c(%esp)
c01007fd:	89 44 24 18          	mov    %eax,0x18(%esp)
c0100801:	c7 44 24 10 e8 50 10 	movl   $0xc01050e8,0x10(%esp)
c0100808:	c0 
c0100809:	83 c4 04             	add    $0x4,%esp
c010080c:	5b                   	pop    %ebx
c010080d:	5e                   	pop    %esi
c010080e:	e9 fd 22 00 00       	jmp    c0102b10 <printf>
c0100813:	8d b6 00 00 00 00    	lea    0x0(%esi),%esi
c0100819:	8d bc 27 00 00 00 00 	lea    0x0(%edi,%eiz,1),%edi
c0100820:	e4 60                	in     $0x60,%al
c0100822:	3c 80                	cmp    $0x80,%al
c0100824:	77 a7                	ja     c01007cd <interupt_handler+0x3d>
c0100826:	0f b6 c0             	movzbl %al,%eax
c0100829:	83 ec 08             	sub    $0x8,%esp
c010082c:	0f be 80 00 a0 12 c0 	movsbl -0x3fed6000(%eax),%eax
c0100833:	50                   	push   %eax
c0100834:	68 18 50 10 c0       	push   $0xc0105018
c0100839:	e8 d2 22 00 00       	call   c0102b10 <printf>
c010083e:	83 c4 10             	add    $0x10,%esp
c0100841:	eb 8a                	jmp    c01007cd <interupt_handler+0x3d>
c0100843:	8d b6 00 00 00 00    	lea    0x0(%esi),%esi
c0100849:	8d bc 27 00 00 00 00 	lea    0x0(%edi,%eiz,1),%edi
c0100850:	ff 74 24 3c          	pushl  0x3c(%esp)
c0100854:	ff 74 24 48          	pushl  0x48(%esp)
c0100858:	0f 20 d3             	mov    %cr2,%ebx
c010085b:	ff 74 24 48          	pushl  0x48(%esp)
c010085f:	ff 74 24 44          	pushl  0x44(%esp)
c0100863:	0f 20 de             	mov    %cr3,%esi
c0100866:	ff 74 24 20          	pushl  0x20(%esp)
c010086a:	ff 74 24 28          	pushl  0x28(%esp)
c010086e:	ff 74 24 30          	pushl  0x30(%esp)
c0100872:	50                   	push   %eax
c0100873:	ff 74 24 44          	pushl  0x44(%esp)
c0100877:	ff 74 24 44          	pushl  0x44(%esp)
c010087b:	ff 74 24 44          	pushl  0x44(%esp)
c010087f:	56                   	push   %esi
c0100880:	51                   	push   %ecx
c0100881:	52                   	push   %edx
c0100882:	53                   	push   %ebx
c0100883:	68 3c 50 10 c0       	push   $0xc010503c
c0100888:	e8 83 22 00 00       	call   c0102b10 <printf>
c010088d:	83 c4 40             	add    $0x40,%esp
c0100890:	eb fe                	jmp    c0100890 <interupt_handler+0x100>
c0100892:	8d b4 26 00 00 00 00 	lea    0x0(%esi,%eiz,1),%esi
c0100899:	8d bc 27 00 00 00 00 	lea    0x0(%edi,%eiz,1),%edi

c01008a0 <sys_print>:
c01008a0:	83 ec 18             	sub    $0x18,%esp
c01008a3:	ff 74 24 30          	pushl  0x30(%esp)
c01008a7:	e8 54 35 00 00       	call   c0103e00 <puts>
c01008ac:	83 c4 1c             	add    $0x1c,%esp
c01008af:	e9 77 0a 00 00       	jmp    c010132b <sys_return>
c01008b4:	8d b6 00 00 00 00    	lea    0x0(%esi),%esi
c01008ba:	8d bf 00 00 00 00    	lea    0x0(%edi),%edi

c01008c0 <init_handlers>:
c01008c0:	8b 44 24 04          	mov    0x4(%esp),%eax
c01008c4:	c7 00 4d 13 10 c0    	movl   $0xc010134d,(%eax)
c01008ca:	c7 40 04 53 13 10 c0 	movl   $0xc0101353,0x4(%eax)
c01008d1:	c7 40 08 59 13 10 c0 	movl   $0xc0101359,0x8(%eax)
c01008d8:	c7 40 0c 5f 13 10 c0 	movl   $0xc010135f,0xc(%eax)
c01008df:	c7 40 10 65 13 10 c0 	movl   $0xc0101365,0x10(%eax)
c01008e6:	c7 40 14 6b 13 10 c0 	movl   $0xc010136b,0x14(%eax)
c01008ed:	c7 40 18 71 13 10 c0 	movl   $0xc0101371,0x18(%eax)
c01008f4:	c7 40 1c 77 13 10 c0 	movl   $0xc0101377,0x1c(%eax)
c01008fb:	c7 40 20 7b 13 10 c0 	movl   $0xc010137b,0x20(%eax)
c0100902:	c7 40 24 81 13 10 c0 	movl   $0xc0101381,0x24(%eax)
c0100909:	c7 40 28 87 13 10 c0 	movl   $0xc0101387,0x28(%eax)
c0100910:	c7 40 2c 8b 13 10 c0 	movl   $0xc010138b,0x2c(%eax)
c0100917:	c7 40 30 8f 13 10 c0 	movl   $0xc010138f,0x30(%eax)
c010091e:	c7 40 34 93 13 10 c0 	movl   $0xc0101393,0x34(%eax)
c0100925:	c7 40 38 97 13 10 c0 	movl   $0xc0101397,0x38(%eax)
c010092c:	c7 40 3c 9b 13 10 c0 	movl   $0xc010139b,0x3c(%eax)
c0100933:	c7 40 40 a1 13 10 c0 	movl   $0xc01013a1,0x40(%eax)
c010093a:	c7 40 44 a7 13 10 c0 	movl   $0xc01013a7,0x44(%eax)
c0100941:	c7 40 48 ab 13 10 c0 	movl   $0xc01013ab,0x48(%eax)
c0100948:	c7 40 4c b1 13 10 c0 	movl   $0xc01013b1,0x4c(%eax)
c010094f:	c7 40 50 ba 13 10 c0 	movl   $0xc01013ba,0x50(%eax)
c0100956:	c7 40 54 c3 13 10 c0 	movl   $0xc01013c3,0x54(%eax)
c010095d:	c7 40 58 cc 13 10 c0 	movl   $0xc01013cc,0x58(%eax)
c0100964:	c7 40 5c d5 13 10 c0 	movl   $0xc01013d5,0x5c(%eax)
c010096b:	c7 40 60 de 13 10 c0 	movl   $0xc01013de,0x60(%eax)
c0100972:	c7 40 64 e7 13 10 c0 	movl   $0xc01013e7,0x64(%eax)
c0100979:	c7 40 68 f0 13 10 c0 	movl   $0xc01013f0,0x68(%eax)
c0100980:	c7 40 6c f9 13 10 c0 	movl   $0xc01013f9,0x6c(%eax)
c0100987:	c7 40 70 02 14 10 c0 	movl   $0xc0101402,0x70(%eax)
c010098e:	c7 40 74 0b 14 10 c0 	movl   $0xc010140b,0x74(%eax)
c0100995:	c7 40 78 14 14 10 c0 	movl   $0xc0101414,0x78(%eax)
c010099c:	c7 40 7c 1d 14 10 c0 	movl   $0xc010141d,0x7c(%eax)
c01009a3:	c7 80 80 00 00 00 26 	movl   $0xc0101426,0x80(%eax)
c01009aa:	14 10 c0 
c01009ad:	c7 80 84 00 00 00 2f 	movl   $0xc010142f,0x84(%eax)
c01009b4:	14 10 c0 
c01009b7:	c7 80 88 00 00 00 38 	movl   $0xc0101438,0x88(%eax)
c01009be:	14 10 c0 
c01009c1:	c7 80 8c 00 00 00 41 	movl   $0xc0101441,0x8c(%eax)
c01009c8:	14 10 c0 
c01009cb:	c7 80 90 00 00 00 4a 	movl   $0xc010144a,0x90(%eax)
c01009d2:	14 10 c0 
c01009d5:	c7 80 94 00 00 00 53 	movl   $0xc0101453,0x94(%eax)
c01009dc:	14 10 c0 
c01009df:	c7 80 98 00 00 00 5c 	movl   $0xc010145c,0x98(%eax)
c01009e6:	14 10 c0 
c01009e9:	c7 80 9c 00 00 00 65 	movl   $0xc0101465,0x9c(%eax)
c01009f0:	14 10 c0 
c01009f3:	c7 80 a0 00 00 00 6e 	movl   $0xc010146e,0xa0(%eax)
c01009fa:	14 10 c0 
c01009fd:	c7 80 a4 00 00 00 77 	movl   $0xc0101477,0xa4(%eax)
c0100a04:	14 10 c0 
c0100a07:	c7 80 a8 00 00 00 80 	movl   $0xc0101480,0xa8(%eax)
c0100a0e:	14 10 c0 
c0100a11:	c7 80 ac 00 00 00 89 	movl   $0xc0101489,0xac(%eax)
c0100a18:	14 10 c0 
c0100a1b:	c7 80 b0 00 00 00 92 	movl   $0xc0101492,0xb0(%eax)
c0100a22:	14 10 c0 
c0100a25:	c7 80 b4 00 00 00 9b 	movl   $0xc010149b,0xb4(%eax)
c0100a2c:	14 10 c0 
c0100a2f:	c7 80 b8 00 00 00 a4 	movl   $0xc01014a4,0xb8(%eax)
c0100a36:	14 10 c0 
c0100a39:	c7 80 bc 00 00 00 ad 	movl   $0xc01014ad,0xbc(%eax)
c0100a40:	14 10 c0 
c0100a43:	c7 80 c0 00 00 00 b6 	movl   $0xc01014b6,0xc0(%eax)
c0100a4a:	14 10 c0 
c0100a4d:	c7 80 c4 00 00 00 bf 	movl   $0xc01014bf,0xc4(%eax)
c0100a54:	14 10 c0 
c0100a57:	c7 80 c8 00 00 00 c8 	movl   $0xc01014c8,0xc8(%eax)
c0100a5e:	14 10 c0 
c0100a61:	c7 80 cc 00 00 00 d1 	movl   $0xc01014d1,0xcc(%eax)
c0100a68:	14 10 c0 
c0100a6b:	c7 80 d0 00 00 00 da 	movl   $0xc01014da,0xd0(%eax)
c0100a72:	14 10 c0 
c0100a75:	c7 80 d4 00 00 00 e3 	movl   $0xc01014e3,0xd4(%eax)
c0100a7c:	14 10 c0 
c0100a7f:	c7 80 d8 00 00 00 ec 	movl   $0xc01014ec,0xd8(%eax)
c0100a86:	14 10 c0 
c0100a89:	c7 80 dc 00 00 00 f5 	movl   $0xc01014f5,0xdc(%eax)
c0100a90:	14 10 c0 
c0100a93:	c7 80 e0 00 00 00 fe 	movl   $0xc01014fe,0xe0(%eax)
c0100a9a:	14 10 c0 
c0100a9d:	c7 80 e4 00 00 00 07 	movl   $0xc0101507,0xe4(%eax)
c0100aa4:	15 10 c0 
c0100aa7:	c7 80 e8 00 00 00 10 	movl   $0xc0101510,0xe8(%eax)
c0100aae:	15 10 c0 
c0100ab1:	c7 80 ec 00 00 00 19 	movl   $0xc0101519,0xec(%eax)
c0100ab8:	15 10 c0 
c0100abb:	c7 80 f0 00 00 00 22 	movl   $0xc0101522,0xf0(%eax)
c0100ac2:	15 10 c0 
c0100ac5:	c7 80 f4 00 00 00 2b 	movl   $0xc010152b,0xf4(%eax)
c0100acc:	15 10 c0 
c0100acf:	c7 80 f8 00 00 00 34 	movl   $0xc0101534,0xf8(%eax)
c0100ad6:	15 10 c0 
c0100ad9:	c7 80 fc 00 00 00 3d 	movl   $0xc010153d,0xfc(%eax)
c0100ae0:	15 10 c0 
c0100ae3:	c7 80 00 01 00 00 46 	movl   $0xc0101546,0x100(%eax)
c0100aea:	15 10 c0 
c0100aed:	c7 80 04 01 00 00 4f 	movl   $0xc010154f,0x104(%eax)
c0100af4:	15 10 c0 
c0100af7:	c7 80 08 01 00 00 58 	movl   $0xc0101558,0x108(%eax)
c0100afe:	15 10 c0 
c0100b01:	c7 80 0c 01 00 00 61 	movl   $0xc0101561,0x10c(%eax)
c0100b08:	15 10 c0 
c0100b0b:	c7 80 10 01 00 00 6a 	movl   $0xc010156a,0x110(%eax)
c0100b12:	15 10 c0 
c0100b15:	c7 80 14 01 00 00 73 	movl   $0xc0101573,0x114(%eax)
c0100b1c:	15 10 c0 
c0100b1f:	c7 80 18 01 00 00 7c 	movl   $0xc010157c,0x118(%eax)
c0100b26:	15 10 c0 
c0100b29:	c7 80 1c 01 00 00 85 	movl   $0xc0101585,0x11c(%eax)
c0100b30:	15 10 c0 
c0100b33:	c7 80 20 01 00 00 8e 	movl   $0xc010158e,0x120(%eax)
c0100b3a:	15 10 c0 
c0100b3d:	c7 80 24 01 00 00 97 	movl   $0xc0101597,0x124(%eax)
c0100b44:	15 10 c0 
c0100b47:	c7 80 28 01 00 00 a0 	movl   $0xc01015a0,0x128(%eax)
c0100b4e:	15 10 c0 
c0100b51:	c7 80 2c 01 00 00 a9 	movl   $0xc01015a9,0x12c(%eax)
c0100b58:	15 10 c0 
c0100b5b:	c7 80 30 01 00 00 b2 	movl   $0xc01015b2,0x130(%eax)
c0100b62:	15 10 c0 
c0100b65:	c7 80 34 01 00 00 bb 	movl   $0xc01015bb,0x134(%eax)
c0100b6c:	15 10 c0 
c0100b6f:	c7 80 38 01 00 00 c4 	movl   $0xc01015c4,0x138(%eax)
c0100b76:	15 10 c0 
c0100b79:	c7 80 3c 01 00 00 cd 	movl   $0xc01015cd,0x13c(%eax)
c0100b80:	15 10 c0 
c0100b83:	c7 80 40 01 00 00 d6 	movl   $0xc01015d6,0x140(%eax)
c0100b8a:	15 10 c0 
c0100b8d:	c7 80 44 01 00 00 df 	movl   $0xc01015df,0x144(%eax)
c0100b94:	15 10 c0 
c0100b97:	c7 80 48 01 00 00 e8 	movl   $0xc01015e8,0x148(%eax)
c0100b9e:	15 10 c0 
c0100ba1:	c7 80 4c 01 00 00 f1 	movl   $0xc01015f1,0x14c(%eax)
c0100ba8:	15 10 c0 
c0100bab:	c7 80 50 01 00 00 fa 	movl   $0xc01015fa,0x150(%eax)
c0100bb2:	15 10 c0 
c0100bb5:	c7 80 54 01 00 00 03 	movl   $0xc0101603,0x154(%eax)
c0100bbc:	16 10 c0 
c0100bbf:	c7 80 58 01 00 00 0c 	movl   $0xc010160c,0x158(%eax)
c0100bc6:	16 10 c0 
c0100bc9:	c7 80 5c 01 00 00 15 	movl   $0xc0101615,0x15c(%eax)
c0100bd0:	16 10 c0 
c0100bd3:	c7 80 60 01 00 00 1e 	movl   $0xc010161e,0x160(%eax)
c0100bda:	16 10 c0 
c0100bdd:	c7 80 64 01 00 00 27 	movl   $0xc0101627,0x164(%eax)
c0100be4:	16 10 c0 
c0100be7:	c7 80 68 01 00 00 30 	movl   $0xc0101630,0x168(%eax)
c0100bee:	16 10 c0 
c0100bf1:	c7 80 6c 01 00 00 39 	movl   $0xc0101639,0x16c(%eax)
c0100bf8:	16 10 c0 
c0100bfb:	c7 80 70 01 00 00 42 	movl   $0xc0101642,0x170(%eax)
c0100c02:	16 10 c0 
c0100c05:	c7 80 74 01 00 00 4b 	movl   $0xc010164b,0x174(%eax)
c0100c0c:	16 10 c0 
c0100c0f:	c7 80 78 01 00 00 54 	movl   $0xc0101654,0x178(%eax)
c0100c16:	16 10 c0 
c0100c19:	c7 80 7c 01 00 00 5d 	movl   $0xc010165d,0x17c(%eax)
c0100c20:	16 10 c0 
c0100c23:	c7 80 80 01 00 00 66 	movl   $0xc0101666,0x180(%eax)
c0100c2a:	16 10 c0 
c0100c2d:	c7 80 84 01 00 00 6f 	movl   $0xc010166f,0x184(%eax)
c0100c34:	16 10 c0 
c0100c37:	c7 80 88 01 00 00 78 	movl   $0xc0101678,0x188(%eax)
c0100c3e:	16 10 c0 
c0100c41:	c7 80 8c 01 00 00 81 	movl   $0xc0101681,0x18c(%eax)
c0100c48:	16 10 c0 
c0100c4b:	c7 80 90 01 00 00 8a 	movl   $0xc010168a,0x190(%eax)
c0100c52:	16 10 c0 
c0100c55:	c7 80 94 01 00 00 93 	movl   $0xc0101693,0x194(%eax)
c0100c5c:	16 10 c0 
c0100c5f:	c7 80 98 01 00 00 9c 	movl   $0xc010169c,0x198(%eax)
c0100c66:	16 10 c0 
c0100c69:	c7 80 9c 01 00 00 a5 	movl   $0xc01016a5,0x19c(%eax)
c0100c70:	16 10 c0 
c0100c73:	c7 80 a0 01 00 00 ae 	movl   $0xc01016ae,0x1a0(%eax)
c0100c7a:	16 10 c0 
c0100c7d:	c7 80 a4 01 00 00 b7 	movl   $0xc01016b7,0x1a4(%eax)
c0100c84:	16 10 c0 
c0100c87:	c7 80 a8 01 00 00 c0 	movl   $0xc01016c0,0x1a8(%eax)
c0100c8e:	16 10 c0 
c0100c91:	c7 80 ac 01 00 00 c9 	movl   $0xc01016c9,0x1ac(%eax)
c0100c98:	16 10 c0 
c0100c9b:	c7 80 b0 01 00 00 d2 	movl   $0xc01016d2,0x1b0(%eax)
c0100ca2:	16 10 c0 
c0100ca5:	c7 80 b4 01 00 00 db 	movl   $0xc01016db,0x1b4(%eax)
c0100cac:	16 10 c0 
c0100caf:	c7 80 b8 01 00 00 e4 	movl   $0xc01016e4,0x1b8(%eax)
c0100cb6:	16 10 c0 
c0100cb9:	c7 80 bc 01 00 00 ed 	movl   $0xc01016ed,0x1bc(%eax)
c0100cc0:	16 10 c0 
c0100cc3:	c7 80 c0 01 00 00 f6 	movl   $0xc01016f6,0x1c0(%eax)
c0100cca:	16 10 c0 
c0100ccd:	c7 80 c4 01 00 00 ff 	movl   $0xc01016ff,0x1c4(%eax)
c0100cd4:	16 10 c0 
c0100cd7:	c7 80 c8 01 00 00 08 	movl   $0xc0101708,0x1c8(%eax)
c0100cde:	17 10 c0 
c0100ce1:	c7 80 cc 01 00 00 11 	movl   $0xc0101711,0x1cc(%eax)
c0100ce8:	17 10 c0 
c0100ceb:	c7 80 d0 01 00 00 1a 	movl   $0xc010171a,0x1d0(%eax)
c0100cf2:	17 10 c0 
c0100cf5:	c7 80 d4 01 00 00 23 	movl   $0xc0101723,0x1d4(%eax)
c0100cfc:	17 10 c0 
c0100cff:	c7 80 d8 01 00 00 2c 	movl   $0xc010172c,0x1d8(%eax)
c0100d06:	17 10 c0 
c0100d09:	c7 80 dc 01 00 00 35 	movl   $0xc0101735,0x1dc(%eax)
c0100d10:	17 10 c0 
c0100d13:	c7 80 e0 01 00 00 3e 	movl   $0xc010173e,0x1e0(%eax)
c0100d1a:	17 10 c0 
c0100d1d:	c7 80 e4 01 00 00 47 	movl   $0xc0101747,0x1e4(%eax)
c0100d24:	17 10 c0 
c0100d27:	c7 80 e8 01 00 00 50 	movl   $0xc0101750,0x1e8(%eax)
c0100d2e:	17 10 c0 
c0100d31:	c7 80 ec 01 00 00 59 	movl   $0xc0101759,0x1ec(%eax)
c0100d38:	17 10 c0 
c0100d3b:	c7 80 f0 01 00 00 62 	movl   $0xc0101762,0x1f0(%eax)
c0100d42:	17 10 c0 
c0100d45:	c7 80 f4 01 00 00 6b 	movl   $0xc010176b,0x1f4(%eax)
c0100d4c:	17 10 c0 
c0100d4f:	c7 80 f8 01 00 00 74 	movl   $0xc0101774,0x1f8(%eax)
c0100d56:	17 10 c0 
c0100d59:	c7 80 fc 01 00 00 7d 	movl   $0xc010177d,0x1fc(%eax)
c0100d60:	17 10 c0 
c0100d63:	c7 80 00 02 00 00 14 	movl   $0xc0101314,0x200(%eax)
c0100d6a:	13 10 c0 
c0100d6d:	c7 80 04 02 00 00 86 	movl   $0xc0101786,0x204(%eax)
c0100d74:	17 10 c0 
c0100d77:	c7 80 08 02 00 00 92 	movl   $0xc0101792,0x208(%eax)
c0100d7e:	17 10 c0 
c0100d81:	c7 80 0c 02 00 00 9e 	movl   $0xc010179e,0x20c(%eax)
c0100d88:	17 10 c0 
c0100d8b:	c7 80 10 02 00 00 aa 	movl   $0xc01017aa,0x210(%eax)
c0100d92:	17 10 c0 
c0100d95:	c7 80 14 02 00 00 b6 	movl   $0xc01017b6,0x214(%eax)
c0100d9c:	17 10 c0 
c0100d9f:	c7 80 18 02 00 00 c2 	movl   $0xc01017c2,0x218(%eax)
c0100da6:	17 10 c0 
c0100da9:	c7 80 1c 02 00 00 ce 	movl   $0xc01017ce,0x21c(%eax)
c0100db0:	17 10 c0 
c0100db3:	c7 80 20 02 00 00 da 	movl   $0xc01017da,0x220(%eax)
c0100dba:	17 10 c0 
c0100dbd:	c7 80 24 02 00 00 e6 	movl   $0xc01017e6,0x224(%eax)
c0100dc4:	17 10 c0 
c0100dc7:	c7 80 28 02 00 00 f2 	movl   $0xc01017f2,0x228(%eax)
c0100dce:	17 10 c0 
c0100dd1:	c7 80 2c 02 00 00 fe 	movl   $0xc01017fe,0x22c(%eax)
c0100dd8:	17 10 c0 
c0100ddb:	c7 80 30 02 00 00 0a 	movl   $0xc010180a,0x230(%eax)
c0100de2:	18 10 c0 
c0100de5:	c7 80 34 02 00 00 16 	movl   $0xc0101816,0x234(%eax)
c0100dec:	18 10 c0 
c0100def:	c7 80 38 02 00 00 22 	movl   $0xc0101822,0x238(%eax)
c0100df6:	18 10 c0 
c0100df9:	c7 80 3c 02 00 00 2e 	movl   $0xc010182e,0x23c(%eax)
c0100e00:	18 10 c0 
c0100e03:	c7 80 40 02 00 00 3a 	movl   $0xc010183a,0x240(%eax)
c0100e0a:	18 10 c0 
c0100e0d:	c7 80 44 02 00 00 46 	movl   $0xc0101846,0x244(%eax)
c0100e14:	18 10 c0 
c0100e17:	c7 80 48 02 00 00 52 	movl   $0xc0101852,0x248(%eax)
c0100e1e:	18 10 c0 
c0100e21:	c7 80 4c 02 00 00 5e 	movl   $0xc010185e,0x24c(%eax)
c0100e28:	18 10 c0 
c0100e2b:	c7 80 50 02 00 00 6a 	movl   $0xc010186a,0x250(%eax)
c0100e32:	18 10 c0 
c0100e35:	c7 80 54 02 00 00 76 	movl   $0xc0101876,0x254(%eax)
c0100e3c:	18 10 c0 
c0100e3f:	c7 80 58 02 00 00 82 	movl   $0xc0101882,0x258(%eax)
c0100e46:	18 10 c0 
c0100e49:	c7 80 5c 02 00 00 8e 	movl   $0xc010188e,0x25c(%eax)
c0100e50:	18 10 c0 
c0100e53:	c7 80 60 02 00 00 9a 	movl   $0xc010189a,0x260(%eax)
c0100e5a:	18 10 c0 
c0100e5d:	c7 80 64 02 00 00 a6 	movl   $0xc01018a6,0x264(%eax)
c0100e64:	18 10 c0 
c0100e67:	c7 80 68 02 00 00 b2 	movl   $0xc01018b2,0x268(%eax)
c0100e6e:	18 10 c0 
c0100e71:	c7 80 6c 02 00 00 be 	movl   $0xc01018be,0x26c(%eax)
c0100e78:	18 10 c0 
c0100e7b:	c7 80 70 02 00 00 ca 	movl   $0xc01018ca,0x270(%eax)
c0100e82:	18 10 c0 
c0100e85:	c7 80 74 02 00 00 d6 	movl   $0xc01018d6,0x274(%eax)
c0100e8c:	18 10 c0 
c0100e8f:	c7 80 78 02 00 00 e2 	movl   $0xc01018e2,0x278(%eax)
c0100e96:	18 10 c0 
c0100e99:	c7 80 7c 02 00 00 ee 	movl   $0xc01018ee,0x27c(%eax)
c0100ea0:	18 10 c0 
c0100ea3:	c7 80 80 02 00 00 fa 	movl   $0xc01018fa,0x280(%eax)
c0100eaa:	18 10 c0 
c0100ead:	c7 80 84 02 00 00 06 	movl   $0xc0101906,0x284(%eax)
c0100eb4:	19 10 c0 
c0100eb7:	c7 80 88 02 00 00 12 	movl   $0xc0101912,0x288(%eax)
c0100ebe:	19 10 c0 
c0100ec1:	c7 80 8c 02 00 00 1e 	movl   $0xc010191e,0x28c(%eax)
c0100ec8:	19 10 c0 
c0100ecb:	c7 80 90 02 00 00 2a 	movl   $0xc010192a,0x290(%eax)
c0100ed2:	19 10 c0 
c0100ed5:	c7 80 94 02 00 00 36 	movl   $0xc0101936,0x294(%eax)
c0100edc:	19 10 c0 
c0100edf:	c7 80 98 02 00 00 42 	movl   $0xc0101942,0x298(%eax)
c0100ee6:	19 10 c0 
c0100ee9:	c7 80 9c 02 00 00 4e 	movl   $0xc010194e,0x29c(%eax)
c0100ef0:	19 10 c0 
c0100ef3:	c7 80 a0 02 00 00 5a 	movl   $0xc010195a,0x2a0(%eax)
c0100efa:	19 10 c0 
c0100efd:	c7 80 a4 02 00 00 66 	movl   $0xc0101966,0x2a4(%eax)
c0100f04:	19 10 c0 
c0100f07:	c7 80 a8 02 00 00 72 	movl   $0xc0101972,0x2a8(%eax)
c0100f0e:	19 10 c0 
c0100f11:	c7 80 ac 02 00 00 7e 	movl   $0xc010197e,0x2ac(%eax)
c0100f18:	19 10 c0 
c0100f1b:	c7 80 b0 02 00 00 8a 	movl   $0xc010198a,0x2b0(%eax)
c0100f22:	19 10 c0 
c0100f25:	c7 80 b4 02 00 00 96 	movl   $0xc0101996,0x2b4(%eax)
c0100f2c:	19 10 c0 
c0100f2f:	c7 80 b8 02 00 00 a2 	movl   $0xc01019a2,0x2b8(%eax)
c0100f36:	19 10 c0 
c0100f39:	c7 80 bc 02 00 00 ae 	movl   $0xc01019ae,0x2bc(%eax)
c0100f40:	19 10 c0 
c0100f43:	c7 80 c0 02 00 00 ba 	movl   $0xc01019ba,0x2c0(%eax)
c0100f4a:	19 10 c0 
c0100f4d:	c7 80 c4 02 00 00 c6 	movl   $0xc01019c6,0x2c4(%eax)
c0100f54:	19 10 c0 
c0100f57:	c7 80 c8 02 00 00 d2 	movl   $0xc01019d2,0x2c8(%eax)
c0100f5e:	19 10 c0 
c0100f61:	c7 80 cc 02 00 00 de 	movl   $0xc01019de,0x2cc(%eax)
c0100f68:	19 10 c0 
c0100f6b:	c7 80 d0 02 00 00 ea 	movl   $0xc01019ea,0x2d0(%eax)
c0100f72:	19 10 c0 
c0100f75:	c7 80 d4 02 00 00 f6 	movl   $0xc01019f6,0x2d4(%eax)
c0100f7c:	19 10 c0 
c0100f7f:	c7 80 d8 02 00 00 02 	movl   $0xc0101a02,0x2d8(%eax)
c0100f86:	1a 10 c0 
c0100f89:	c7 80 dc 02 00 00 0e 	movl   $0xc0101a0e,0x2dc(%eax)
c0100f90:	1a 10 c0 
c0100f93:	c7 80 e0 02 00 00 1a 	movl   $0xc0101a1a,0x2e0(%eax)
c0100f9a:	1a 10 c0 
c0100f9d:	c7 80 e4 02 00 00 26 	movl   $0xc0101a26,0x2e4(%eax)
c0100fa4:	1a 10 c0 
c0100fa7:	c7 80 e8 02 00 00 32 	movl   $0xc0101a32,0x2e8(%eax)
c0100fae:	1a 10 c0 
c0100fb1:	c7 80 ec 02 00 00 3e 	movl   $0xc0101a3e,0x2ec(%eax)
c0100fb8:	1a 10 c0 
c0100fbb:	c7 80 f0 02 00 00 4a 	movl   $0xc0101a4a,0x2f0(%eax)
c0100fc2:	1a 10 c0 
c0100fc5:	c7 80 f4 02 00 00 56 	movl   $0xc0101a56,0x2f4(%eax)
c0100fcc:	1a 10 c0 
c0100fcf:	c7 80 f8 02 00 00 62 	movl   $0xc0101a62,0x2f8(%eax)
c0100fd6:	1a 10 c0 
c0100fd9:	c7 80 fc 02 00 00 6e 	movl   $0xc0101a6e,0x2fc(%eax)
c0100fe0:	1a 10 c0 
c0100fe3:	c7 80 00 03 00 00 7a 	movl   $0xc0101a7a,0x300(%eax)
c0100fea:	1a 10 c0 
c0100fed:	c7 80 04 03 00 00 86 	movl   $0xc0101a86,0x304(%eax)
c0100ff4:	1a 10 c0 
c0100ff7:	c7 80 08 03 00 00 92 	movl   $0xc0101a92,0x308(%eax)
c0100ffe:	1a 10 c0 
c0101001:	c7 80 0c 03 00 00 9e 	movl   $0xc0101a9e,0x30c(%eax)
c0101008:	1a 10 c0 
c010100b:	c7 80 10 03 00 00 aa 	movl   $0xc0101aaa,0x310(%eax)
c0101012:	1a 10 c0 
c0101015:	c7 80 14 03 00 00 b6 	movl   $0xc0101ab6,0x314(%eax)
c010101c:	1a 10 c0 
c010101f:	c7 80 18 03 00 00 c2 	movl   $0xc0101ac2,0x318(%eax)
c0101026:	1a 10 c0 
c0101029:	c7 80 1c 03 00 00 ce 	movl   $0xc0101ace,0x31c(%eax)
c0101030:	1a 10 c0 
c0101033:	c7 80 20 03 00 00 da 	movl   $0xc0101ada,0x320(%eax)
c010103a:	1a 10 c0 
c010103d:	c7 80 24 03 00 00 e6 	movl   $0xc0101ae6,0x324(%eax)
c0101044:	1a 10 c0 
c0101047:	c7 80 28 03 00 00 f2 	movl   $0xc0101af2,0x328(%eax)
c010104e:	1a 10 c0 
c0101051:	c7 80 2c 03 00 00 fe 	movl   $0xc0101afe,0x32c(%eax)
c0101058:	1a 10 c0 
c010105b:	c7 80 30 03 00 00 0a 	movl   $0xc0101b0a,0x330(%eax)
c0101062:	1b 10 c0 
c0101065:	c7 80 34 03 00 00 16 	movl   $0xc0101b16,0x334(%eax)
c010106c:	1b 10 c0 
c010106f:	c7 80 38 03 00 00 22 	movl   $0xc0101b22,0x338(%eax)
c0101076:	1b 10 c0 
c0101079:	c7 80 3c 03 00 00 2e 	movl   $0xc0101b2e,0x33c(%eax)
c0101080:	1b 10 c0 
c0101083:	c7 80 40 03 00 00 3a 	movl   $0xc0101b3a,0x340(%eax)
c010108a:	1b 10 c0 
c010108d:	c7 80 44 03 00 00 46 	movl   $0xc0101b46,0x344(%eax)
c0101094:	1b 10 c0 
c0101097:	c7 80 48 03 00 00 52 	movl   $0xc0101b52,0x348(%eax)
c010109e:	1b 10 c0 
c01010a1:	c7 80 4c 03 00 00 5e 	movl   $0xc0101b5e,0x34c(%eax)
c01010a8:	1b 10 c0 
c01010ab:	c7 80 50 03 00 00 6a 	movl   $0xc0101b6a,0x350(%eax)
c01010b2:	1b 10 c0 
c01010b5:	c7 80 54 03 00 00 76 	movl   $0xc0101b76,0x354(%eax)
c01010bc:	1b 10 c0 
c01010bf:	c7 80 58 03 00 00 82 	movl   $0xc0101b82,0x358(%eax)
c01010c6:	1b 10 c0 
c01010c9:	c7 80 5c 03 00 00 8e 	movl   $0xc0101b8e,0x35c(%eax)
c01010d0:	1b 10 c0 
c01010d3:	c7 80 60 03 00 00 9a 	movl   $0xc0101b9a,0x360(%eax)
c01010da:	1b 10 c0 
c01010dd:	c7 80 64 03 00 00 a6 	movl   $0xc0101ba6,0x364(%eax)
c01010e4:	1b 10 c0 
c01010e7:	c7 80 68 03 00 00 b2 	movl   $0xc0101bb2,0x368(%eax)
c01010ee:	1b 10 c0 
c01010f1:	c7 80 6c 03 00 00 be 	movl   $0xc0101bbe,0x36c(%eax)
c01010f8:	1b 10 c0 
c01010fb:	c7 80 70 03 00 00 ca 	movl   $0xc0101bca,0x370(%eax)
c0101102:	1b 10 c0 
c0101105:	c7 80 74 03 00 00 d6 	movl   $0xc0101bd6,0x374(%eax)
c010110c:	1b 10 c0 
c010110f:	c7 80 78 03 00 00 e2 	movl   $0xc0101be2,0x378(%eax)
c0101116:	1b 10 c0 
c0101119:	c7 80 7c 03 00 00 ee 	movl   $0xc0101bee,0x37c(%eax)
c0101120:	1b 10 c0 
c0101123:	c7 80 80 03 00 00 fa 	movl   $0xc0101bfa,0x380(%eax)
c010112a:	1b 10 c0 
c010112d:	c7 80 84 03 00 00 06 	movl   $0xc0101c06,0x384(%eax)
c0101134:	1c 10 c0 
c0101137:	c7 80 88 03 00 00 12 	movl   $0xc0101c12,0x388(%eax)
c010113e:	1c 10 c0 
c0101141:	c7 80 8c 03 00 00 1e 	movl   $0xc0101c1e,0x38c(%eax)
c0101148:	1c 10 c0 
c010114b:	c7 80 90 03 00 00 2a 	movl   $0xc0101c2a,0x390(%eax)
c0101152:	1c 10 c0 
c0101155:	c7 80 94 03 00 00 36 	movl   $0xc0101c36,0x394(%eax)
c010115c:	1c 10 c0 
c010115f:	c7 80 98 03 00 00 42 	movl   $0xc0101c42,0x398(%eax)
c0101166:	1c 10 c0 
c0101169:	c7 80 9c 03 00 00 4e 	movl   $0xc0101c4e,0x39c(%eax)
c0101170:	1c 10 c0 
c0101173:	c7 80 a0 03 00 00 5a 	movl   $0xc0101c5a,0x3a0(%eax)
c010117a:	1c 10 c0 
c010117d:	c7 80 a4 03 00 00 66 	movl   $0xc0101c66,0x3a4(%eax)
c0101184:	1c 10 c0 
c0101187:	c7 80 a8 03 00 00 72 	movl   $0xc0101c72,0x3a8(%eax)
c010118e:	1c 10 c0 
c0101191:	c7 80 ac 03 00 00 7e 	movl   $0xc0101c7e,0x3ac(%eax)
c0101198:	1c 10 c0 
c010119b:	c7 80 b0 03 00 00 8a 	movl   $0xc0101c8a,0x3b0(%eax)
c01011a2:	1c 10 c0 
c01011a5:	c7 80 b4 03 00 00 96 	movl   $0xc0101c96,0x3b4(%eax)
c01011ac:	1c 10 c0 
c01011af:	c7 80 b8 03 00 00 a2 	movl   $0xc0101ca2,0x3b8(%eax)
c01011b6:	1c 10 c0 
c01011b9:	c7 80 bc 03 00 00 ae 	movl   $0xc0101cae,0x3bc(%eax)
c01011c0:	1c 10 c0 
c01011c3:	c7 80 c0 03 00 00 ba 	movl   $0xc0101cba,0x3c0(%eax)
c01011ca:	1c 10 c0 
c01011cd:	c7 80 c4 03 00 00 c6 	movl   $0xc0101cc6,0x3c4(%eax)
c01011d4:	1c 10 c0 
c01011d7:	c7 80 c8 03 00 00 d2 	movl   $0xc0101cd2,0x3c8(%eax)
c01011de:	1c 10 c0 
c01011e1:	c7 80 cc 03 00 00 de 	movl   $0xc0101cde,0x3cc(%eax)
c01011e8:	1c 10 c0 
c01011eb:	c7 80 d0 03 00 00 ea 	movl   $0xc0101cea,0x3d0(%eax)
c01011f2:	1c 10 c0 
c01011f5:	c7 80 d4 03 00 00 f6 	movl   $0xc0101cf6,0x3d4(%eax)
c01011fc:	1c 10 c0 
c01011ff:	c7 80 d8 03 00 00 02 	movl   $0xc0101d02,0x3d8(%eax)
c0101206:	1d 10 c0 
c0101209:	c7 80 dc 03 00 00 0e 	movl   $0xc0101d0e,0x3dc(%eax)
c0101210:	1d 10 c0 
c0101213:	c7 80 e0 03 00 00 1a 	movl   $0xc0101d1a,0x3e0(%eax)
c010121a:	1d 10 c0 
c010121d:	c7 80 e4 03 00 00 26 	movl   $0xc0101d26,0x3e4(%eax)
c0101224:	1d 10 c0 
c0101227:	c7 80 e8 03 00 00 32 	movl   $0xc0101d32,0x3e8(%eax)
c010122e:	1d 10 c0 
c0101231:	c7 80 ec 03 00 00 3e 	movl   $0xc0101d3e,0x3ec(%eax)
c0101238:	1d 10 c0 
c010123b:	c7 80 f0 03 00 00 4a 	movl   $0xc0101d4a,0x3f0(%eax)
c0101242:	1d 10 c0 
c0101245:	c7 80 f4 03 00 00 56 	movl   $0xc0101d56,0x3f4(%eax)
c010124c:	1d 10 c0 
c010124f:	c7 80 f8 03 00 00 62 	movl   $0xc0101d62,0x3f8(%eax)
c0101256:	1d 10 c0 
c0101259:	c7 80 fc 03 00 00 6e 	movl   $0xc0101d6e,0x3fc(%eax)
c0101260:	1d 10 c0 
c0101263:	c3                   	ret    
c0101264:	8d b6 00 00 00 00    	lea    0x0(%esi),%esi
c010126a:	8d bf 00 00 00 00    	lea    0x0(%edi),%edi

c0101270 <initialize_input>:
c0101270:	53                   	push   %ebx
c0101271:	81 ec 18 0c 00 00    	sub    $0xc18,%esp
c0101277:	8d 5c 24 10          	lea    0x10(%esp),%ebx
c010127b:	53                   	push   %ebx
c010127c:	e8 3f f6 ff ff       	call   c01008c0 <init_handlers>
c0101281:	58                   	pop    %eax
c0101282:	b8 01 00 00 00       	mov    $0x1,%eax
c0101287:	8d 8c 24 10 04 00 00 	lea    0x410(%esp),%ecx
c010128e:	eb 03                	jmp    c0101293 <initialize_input+0x23>
c0101290:	83 c0 01             	add    $0x1,%eax
c0101293:	8b 54 83 fc          	mov    -0x4(%ebx,%eax,4),%edx
c0101297:	3d 81 00 00 00       	cmp    $0x81,%eax
c010129c:	66 c7 44 c1 fa 08 00 	movw   $0x8,-0x6(%ecx,%eax,8)
c01012a3:	66 89 54 c1 f8       	mov    %dx,-0x8(%ecx,%eax,8)
c01012a8:	74 50                	je     c01012fa <initialize_input+0x8a>
c01012aa:	c1 ea 10             	shr    $0x10,%edx
c01012ad:	3d 00 01 00 00       	cmp    $0x100,%eax
c01012b2:	66 c7 44 c1 fc 00 8e 	movw   $0x8e00,-0x4(%ecx,%eax,8)
c01012b9:	66 89 54 c1 fe       	mov    %dx,-0x2(%ecx,%eax,8)
c01012be:	75 d0                	jne    c0101290 <initialize_input+0x20>
c01012c0:	b8 ff 07 00 00       	mov    $0x7ff,%eax
c01012c5:	89 4c 24 0c          	mov    %ecx,0xc(%esp)
c01012c9:	83 ec 0c             	sub    $0xc,%esp
c01012cc:	66 89 44 24 16       	mov    %ax,0x16(%esp)
c01012d1:	8d 44 24 16          	lea    0x16(%esp),%eax
c01012d5:	50                   	push   %eax
c01012d6:	e8 9f 0a 00 00       	call   c0101d7a <load_idt>
c01012db:	5a                   	pop    %edx
c01012dc:	59                   	pop    %ecx
c01012dd:	6a 28                	push   $0x28
c01012df:	6a 20                	push   $0x20
c01012e1:	e8 ea f1 ff ff       	call   c01004d0 <PIC_remap>
c01012e6:	e4 21                	in     $0x21,%al
c01012e8:	83 c8 01             	or     $0x1,%eax
c01012eb:	e6 21                	out    %al,$0x21
c01012ed:	e8 be f2 ff ff       	call   c01005b0 <init_key_code_map>
c01012f2:	81 c4 28 0c 00 00    	add    $0xc28,%esp
c01012f8:	5b                   	pop    %ebx
c01012f9:	c3                   	ret    
c01012fa:	c1 ea 10             	shr    $0x10,%edx
c01012fd:	66 c7 84 24 14 08 00 	movw   $0xee00,0x814(%esp)
c0101304:	00 00 ee 
c0101307:	66 89 94 24 16 08 00 	mov    %dx,0x816(%esp)
c010130e:	00 
c010130f:	e9 7c ff ff ff       	jmp    c0101290 <initialize_input+0x20>

c0101314 <interupt_handler_128>:
c0101314:	50                   	push   %eax
c0101315:	53                   	push   %ebx
c0101316:	51                   	push   %ecx
c0101317:	52                   	push   %edx
c0101318:	56                   	push   %esi
c0101319:	57                   	push   %edi
c010131a:	55                   	push   %ebp
c010131b:	c1 e0 02             	shl    $0x2,%eax
c010131e:	8b 80 9e 90 12 c0    	mov    -0x3fed6f62(%eax),%eax
c0101324:	ff d0                	call   *%eax
c0101326:	e8 00 00 00 00       	call   c010132b <sys_return>

c010132b <sys_return>:
c010132b:	83 c4 04             	add    $0x4,%esp
c010132e:	5d                   	pop    %ebp
c010132f:	5f                   	pop    %edi
c0101330:	5e                   	pop    %esi
c0101331:	5a                   	pop    %edx
c0101332:	59                   	pop    %ecx
c0101333:	5b                   	pop    %ebx
c0101334:	58                   	pop    %eax
c0101335:	cf                   	iret   

c0101336 <common_interupt_handler>:
c0101336:	50                   	push   %eax
c0101337:	53                   	push   %ebx
c0101338:	51                   	push   %ecx
c0101339:	52                   	push   %edx
c010133a:	56                   	push   %esi
c010133b:	57                   	push   %edi
c010133c:	55                   	push   %ebp
c010133d:	e8 4e f4 ff ff       	call   c0100790 <interupt_handler>
c0101342:	5d                   	pop    %ebp
c0101343:	5f                   	pop    %edi
c0101344:	5e                   	pop    %esi
c0101345:	5a                   	pop    %edx
c0101346:	59                   	pop    %ecx
c0101347:	5b                   	pop    %ebx
c0101348:	58                   	pop    %eax
c0101349:	83 c4 08             	add    $0x8,%esp
c010134c:	cf                   	iret   

c010134d <interupt_handler_0>:
c010134d:	6a 00                	push   $0x0
c010134f:	6a 00                	push   $0x0
c0101351:	eb e3                	jmp    c0101336 <common_interupt_handler>

c0101353 <interupt_handler_1>:
c0101353:	6a 00                	push   $0x0
c0101355:	6a 01                	push   $0x1
c0101357:	eb dd                	jmp    c0101336 <common_interupt_handler>

c0101359 <interupt_handler_2>:
c0101359:	6a 00                	push   $0x0
c010135b:	6a 02                	push   $0x2
c010135d:	eb d7                	jmp    c0101336 <common_interupt_handler>

c010135f <interupt_handler_3>:
c010135f:	6a 00                	push   $0x0
c0101361:	6a 03                	push   $0x3
c0101363:	eb d1                	jmp    c0101336 <common_interupt_handler>

c0101365 <interupt_handler_4>:
c0101365:	6a 00                	push   $0x0
c0101367:	6a 04                	push   $0x4
c0101369:	eb cb                	jmp    c0101336 <common_interupt_handler>

c010136b <interupt_handler_5>:
c010136b:	6a 00                	push   $0x0
c010136d:	6a 05                	push   $0x5
c010136f:	eb c5                	jmp    c0101336 <common_interupt_handler>

c0101371 <interupt_handler_6>:
c0101371:	6a 00                	push   $0x0
c0101373:	6a 06                	push   $0x6
c0101375:	eb bf                	jmp    c0101336 <common_interupt_handler>

c0101377 <interupt_handler_7>:
c0101377:	6a 07                	push   $0x7
c0101379:	eb bb                	jmp    c0101336 <common_interupt_handler>

c010137b <interupt_handler_8>:
c010137b:	6a 00                	push   $0x0
c010137d:	6a 08                	push   $0x8
c010137f:	eb b5                	jmp    c0101336 <common_interupt_handler>

c0101381 <interupt_handler_9>:
c0101381:	6a 00                	push   $0x0
c0101383:	6a 09                	push   $0x9
c0101385:	eb af                	jmp    c0101336 <common_interupt_handler>

c0101387 <interupt_handler_10>:
c0101387:	6a 0a                	push   $0xa
c0101389:	eb ab                	jmp    c0101336 <common_interupt_handler>

c010138b <interupt_handler_11>:
c010138b:	6a 0b                	push   $0xb
c010138d:	eb a7                	jmp    c0101336 <common_interupt_handler>

c010138f <interupt_handler_12>:
c010138f:	6a 0c                	push   $0xc
c0101391:	eb a3                	jmp    c0101336 <common_interupt_handler>

c0101393 <interupt_handler_13>:
c0101393:	6a 0d                	push   $0xd
c0101395:	eb 9f                	jmp    c0101336 <common_interupt_handler>

c0101397 <interupt_handler_14>:
c0101397:	6a 0e                	push   $0xe
c0101399:	eb 9b                	jmp    c0101336 <common_interupt_handler>

c010139b <interupt_handler_15>:
c010139b:	6a 00                	push   $0x0
c010139d:	6a 0f                	push   $0xf
c010139f:	eb 95                	jmp    c0101336 <common_interupt_handler>

c01013a1 <interupt_handler_16>:
c01013a1:	6a 00                	push   $0x0
c01013a3:	6a 10                	push   $0x10
c01013a5:	eb 8f                	jmp    c0101336 <common_interupt_handler>

c01013a7 <interupt_handler_17>:
c01013a7:	6a 11                	push   $0x11
c01013a9:	eb 8b                	jmp    c0101336 <common_interupt_handler>

c01013ab <interupt_handler_18>:
c01013ab:	6a 00                	push   $0x0
c01013ad:	6a 12                	push   $0x12
c01013af:	eb 85                	jmp    c0101336 <common_interupt_handler>

c01013b1 <interupt_handler_19>:
c01013b1:	6a 00                	push   $0x0
c01013b3:	6a 13                	push   $0x13
c01013b5:	e9 7c ff ff ff       	jmp    c0101336 <common_interupt_handler>

c01013ba <interupt_handler_20>:
c01013ba:	6a 00                	push   $0x0
c01013bc:	6a 14                	push   $0x14
c01013be:	e9 73 ff ff ff       	jmp    c0101336 <common_interupt_handler>

c01013c3 <interupt_handler_21>:
c01013c3:	6a 00                	push   $0x0
c01013c5:	6a 15                	push   $0x15
c01013c7:	e9 6a ff ff ff       	jmp    c0101336 <common_interupt_handler>

c01013cc <interupt_handler_22>:
c01013cc:	6a 00                	push   $0x0
c01013ce:	6a 16                	push   $0x16
c01013d0:	e9 61 ff ff ff       	jmp    c0101336 <common_interupt_handler>

c01013d5 <interupt_handler_23>:
c01013d5:	6a 00                	push   $0x0
c01013d7:	6a 17                	push   $0x17
c01013d9:	e9 58 ff ff ff       	jmp    c0101336 <common_interupt_handler>

c01013de <interupt_handler_24>:
c01013de:	6a 00                	push   $0x0
c01013e0:	6a 18                	push   $0x18
c01013e2:	e9 4f ff ff ff       	jmp    c0101336 <common_interupt_handler>

c01013e7 <interupt_handler_25>:
c01013e7:	6a 00                	push   $0x0
c01013e9:	6a 19                	push   $0x19
c01013eb:	e9 46 ff ff ff       	jmp    c0101336 <common_interupt_handler>

c01013f0 <interupt_handler_26>:
c01013f0:	6a 00                	push   $0x0
c01013f2:	6a 1a                	push   $0x1a
c01013f4:	e9 3d ff ff ff       	jmp    c0101336 <common_interupt_handler>

c01013f9 <interupt_handler_27>:
c01013f9:	6a 00                	push   $0x0
c01013fb:	6a 1b                	push   $0x1b
c01013fd:	e9 34 ff ff ff       	jmp    c0101336 <common_interupt_handler>

c0101402 <interupt_handler_28>:
c0101402:	6a 00                	push   $0x0
c0101404:	6a 1c                	push   $0x1c
c0101406:	e9 2b ff ff ff       	jmp    c0101336 <common_interupt_handler>

c010140b <interupt_handler_29>:
c010140b:	6a 00                	push   $0x0
c010140d:	6a 1d                	push   $0x1d
c010140f:	e9 22 ff ff ff       	jmp    c0101336 <common_interupt_handler>

c0101414 <interupt_handler_30>:
c0101414:	6a 00                	push   $0x0
c0101416:	6a 1e                	push   $0x1e
c0101418:	e9 19 ff ff ff       	jmp    c0101336 <common_interupt_handler>

c010141d <interupt_handler_31>:
c010141d:	6a 00                	push   $0x0
c010141f:	6a 1f                	push   $0x1f
c0101421:	e9 10 ff ff ff       	jmp    c0101336 <common_interupt_handler>

c0101426 <interupt_handler_32>:
c0101426:	6a 00                	push   $0x0
c0101428:	6a 20                	push   $0x20
c010142a:	e9 07 ff ff ff       	jmp    c0101336 <common_interupt_handler>

c010142f <interupt_handler_33>:
c010142f:	6a 00                	push   $0x0
c0101431:	6a 21                	push   $0x21
c0101433:	e9 fe fe ff ff       	jmp    c0101336 <common_interupt_handler>

c0101438 <interupt_handler_34>:
c0101438:	6a 00                	push   $0x0
c010143a:	6a 22                	push   $0x22
c010143c:	e9 f5 fe ff ff       	jmp    c0101336 <common_interupt_handler>

c0101441 <interupt_handler_35>:
c0101441:	6a 00                	push   $0x0
c0101443:	6a 23                	push   $0x23
c0101445:	e9 ec fe ff ff       	jmp    c0101336 <common_interupt_handler>

c010144a <interupt_handler_36>:
c010144a:	6a 00                	push   $0x0
c010144c:	6a 24                	push   $0x24
c010144e:	e9 e3 fe ff ff       	jmp    c0101336 <common_interupt_handler>

c0101453 <interupt_handler_37>:
c0101453:	6a 00                	push   $0x0
c0101455:	6a 25                	push   $0x25
c0101457:	e9 da fe ff ff       	jmp    c0101336 <common_interupt_handler>

c010145c <interupt_handler_38>:
c010145c:	6a 00                	push   $0x0
c010145e:	6a 26                	push   $0x26
c0101460:	e9 d1 fe ff ff       	jmp    c0101336 <common_interupt_handler>

c0101465 <interupt_handler_39>:
c0101465:	6a 00                	push   $0x0
c0101467:	6a 27                	push   $0x27
c0101469:	e9 c8 fe ff ff       	jmp    c0101336 <common_interupt_handler>

c010146e <interupt_handler_40>:
c010146e:	6a 00                	push   $0x0
c0101470:	6a 28                	push   $0x28
c0101472:	e9 bf fe ff ff       	jmp    c0101336 <common_interupt_handler>

c0101477 <interupt_handler_41>:
c0101477:	6a 00                	push   $0x0
c0101479:	6a 29                	push   $0x29
c010147b:	e9 b6 fe ff ff       	jmp    c0101336 <common_interupt_handler>

c0101480 <interupt_handler_42>:
c0101480:	6a 00                	push   $0x0
c0101482:	6a 2a                	push   $0x2a
c0101484:	e9 ad fe ff ff       	jmp    c0101336 <common_interupt_handler>

c0101489 <interupt_handler_43>:
c0101489:	6a 00                	push   $0x0
c010148b:	6a 2b                	push   $0x2b
c010148d:	e9 a4 fe ff ff       	jmp    c0101336 <common_interupt_handler>

c0101492 <interupt_handler_44>:
c0101492:	6a 00                	push   $0x0
c0101494:	6a 2c                	push   $0x2c
c0101496:	e9 9b fe ff ff       	jmp    c0101336 <common_interupt_handler>

c010149b <interupt_handler_45>:
c010149b:	6a 00                	push   $0x0
c010149d:	6a 2d                	push   $0x2d
c010149f:	e9 92 fe ff ff       	jmp    c0101336 <common_interupt_handler>

c01014a4 <interupt_handler_46>:
c01014a4:	6a 00                	push   $0x0
c01014a6:	6a 2e                	push   $0x2e
c01014a8:	e9 89 fe ff ff       	jmp    c0101336 <common_interupt_handler>

c01014ad <interupt_handler_47>:
c01014ad:	6a 00                	push   $0x0
c01014af:	6a 2f                	push   $0x2f
c01014b1:	e9 80 fe ff ff       	jmp    c0101336 <common_interupt_handler>

c01014b6 <interupt_handler_48>:
c01014b6:	6a 00                	push   $0x0
c01014b8:	6a 30                	push   $0x30
c01014ba:	e9 77 fe ff ff       	jmp    c0101336 <common_interupt_handler>

c01014bf <interupt_handler_49>:
c01014bf:	6a 00                	push   $0x0
c01014c1:	6a 31                	push   $0x31
c01014c3:	e9 6e fe ff ff       	jmp    c0101336 <common_interupt_handler>

c01014c8 <interupt_handler_50>:
c01014c8:	6a 00                	push   $0x0
c01014ca:	6a 32                	push   $0x32
c01014cc:	e9 65 fe ff ff       	jmp    c0101336 <common_interupt_handler>

c01014d1 <interupt_handler_51>:
c01014d1:	6a 00                	push   $0x0
c01014d3:	6a 33                	push   $0x33
c01014d5:	e9 5c fe ff ff       	jmp    c0101336 <common_interupt_handler>

c01014da <interupt_handler_52>:
c01014da:	6a 00                	push   $0x0
c01014dc:	6a 34                	push   $0x34
c01014de:	e9 53 fe ff ff       	jmp    c0101336 <common_interupt_handler>

c01014e3 <interupt_handler_53>:
c01014e3:	6a 00                	push   $0x0
c01014e5:	6a 35                	push   $0x35
c01014e7:	e9 4a fe ff ff       	jmp    c0101336 <common_interupt_handler>

c01014ec <interupt_handler_54>:
c01014ec:	6a 00                	push   $0x0
c01014ee:	6a 36                	push   $0x36
c01014f0:	e9 41 fe ff ff       	jmp    c0101336 <common_interupt_handler>

c01014f5 <interupt_handler_55>:
c01014f5:	6a 00                	push   $0x0
c01014f7:	6a 37                	push   $0x37
c01014f9:	e9 38 fe ff ff       	jmp    c0101336 <common_interupt_handler>

c01014fe <interupt_handler_56>:
c01014fe:	6a 00                	push   $0x0
c0101500:	6a 38                	push   $0x38
c0101502:	e9 2f fe ff ff       	jmp    c0101336 <common_interupt_handler>

c0101507 <interupt_handler_57>:
c0101507:	6a 00                	push   $0x0
c0101509:	6a 39                	push   $0x39
c010150b:	e9 26 fe ff ff       	jmp    c0101336 <common_interupt_handler>

c0101510 <interupt_handler_58>:
c0101510:	6a 00                	push   $0x0
c0101512:	6a 3a                	push   $0x3a
c0101514:	e9 1d fe ff ff       	jmp    c0101336 <common_interupt_handler>

c0101519 <interupt_handler_59>:
c0101519:	6a 00                	push   $0x0
c010151b:	6a 3b                	push   $0x3b
c010151d:	e9 14 fe ff ff       	jmp    c0101336 <common_interupt_handler>

c0101522 <interupt_handler_60>:
c0101522:	6a 00                	push   $0x0
c0101524:	6a 3c                	push   $0x3c
c0101526:	e9 0b fe ff ff       	jmp    c0101336 <common_interupt_handler>

c010152b <interupt_handler_61>:
c010152b:	6a 00                	push   $0x0
c010152d:	6a 3d                	push   $0x3d
c010152f:	e9 02 fe ff ff       	jmp    c0101336 <common_interupt_handler>

c0101534 <interupt_handler_62>:
c0101534:	6a 00                	push   $0x0
c0101536:	6a 3e                	push   $0x3e
c0101538:	e9 f9 fd ff ff       	jmp    c0101336 <common_interupt_handler>

c010153d <interupt_handler_63>:
c010153d:	6a 00                	push   $0x0
c010153f:	6a 3f                	push   $0x3f
c0101541:	e9 f0 fd ff ff       	jmp    c0101336 <common_interupt_handler>

c0101546 <interupt_handler_64>:
c0101546:	6a 00                	push   $0x0
c0101548:	6a 40                	push   $0x40
c010154a:	e9 e7 fd ff ff       	jmp    c0101336 <common_interupt_handler>

c010154f <interupt_handler_65>:
c010154f:	6a 00                	push   $0x0
c0101551:	6a 41                	push   $0x41
c0101553:	e9 de fd ff ff       	jmp    c0101336 <common_interupt_handler>

c0101558 <interupt_handler_66>:
c0101558:	6a 00                	push   $0x0
c010155a:	6a 42                	push   $0x42
c010155c:	e9 d5 fd ff ff       	jmp    c0101336 <common_interupt_handler>

c0101561 <interupt_handler_67>:
c0101561:	6a 00                	push   $0x0
c0101563:	6a 43                	push   $0x43
c0101565:	e9 cc fd ff ff       	jmp    c0101336 <common_interupt_handler>

c010156a <interupt_handler_68>:
c010156a:	6a 00                	push   $0x0
c010156c:	6a 44                	push   $0x44
c010156e:	e9 c3 fd ff ff       	jmp    c0101336 <common_interupt_handler>

c0101573 <interupt_handler_69>:
c0101573:	6a 00                	push   $0x0
c0101575:	6a 45                	push   $0x45
c0101577:	e9 ba fd ff ff       	jmp    c0101336 <common_interupt_handler>

c010157c <interupt_handler_70>:
c010157c:	6a 00                	push   $0x0
c010157e:	6a 46                	push   $0x46
c0101580:	e9 b1 fd ff ff       	jmp    c0101336 <common_interupt_handler>

c0101585 <interupt_handler_71>:
c0101585:	6a 00                	push   $0x0
c0101587:	6a 47                	push   $0x47
c0101589:	e9 a8 fd ff ff       	jmp    c0101336 <common_interupt_handler>

c010158e <interupt_handler_72>:
c010158e:	6a 00                	push   $0x0
c0101590:	6a 48                	push   $0x48
c0101592:	e9 9f fd ff ff       	jmp    c0101336 <common_interupt_handler>

c0101597 <interupt_handler_73>:
c0101597:	6a 00                	push   $0x0
c0101599:	6a 49                	push   $0x49
c010159b:	e9 96 fd ff ff       	jmp    c0101336 <common_interupt_handler>

c01015a0 <interupt_handler_74>:
c01015a0:	6a 00                	push   $0x0
c01015a2:	6a 4a                	push   $0x4a
c01015a4:	e9 8d fd ff ff       	jmp    c0101336 <common_interupt_handler>

c01015a9 <interupt_handler_75>:
c01015a9:	6a 00                	push   $0x0
c01015ab:	6a 4b                	push   $0x4b
c01015ad:	e9 84 fd ff ff       	jmp    c0101336 <common_interupt_handler>

c01015b2 <interupt_handler_76>:
c01015b2:	6a 00                	push   $0x0
c01015b4:	6a 4c                	push   $0x4c
c01015b6:	e9 7b fd ff ff       	jmp    c0101336 <common_interupt_handler>

c01015bb <interupt_handler_77>:
c01015bb:	6a 00                	push   $0x0
c01015bd:	6a 4d                	push   $0x4d
c01015bf:	e9 72 fd ff ff       	jmp    c0101336 <common_interupt_handler>

c01015c4 <interupt_handler_78>:
c01015c4:	6a 00                	push   $0x0
c01015c6:	6a 4e                	push   $0x4e
c01015c8:	e9 69 fd ff ff       	jmp    c0101336 <common_interupt_handler>

c01015cd <interupt_handler_79>:
c01015cd:	6a 00                	push   $0x0
c01015cf:	6a 4f                	push   $0x4f
c01015d1:	e9 60 fd ff ff       	jmp    c0101336 <common_interupt_handler>

c01015d6 <interupt_handler_80>:
c01015d6:	6a 00                	push   $0x0
c01015d8:	6a 50                	push   $0x50
c01015da:	e9 57 fd ff ff       	jmp    c0101336 <common_interupt_handler>

c01015df <interupt_handler_81>:
c01015df:	6a 00                	push   $0x0
c01015e1:	6a 51                	push   $0x51
c01015e3:	e9 4e fd ff ff       	jmp    c0101336 <common_interupt_handler>

c01015e8 <interupt_handler_82>:
c01015e8:	6a 00                	push   $0x0
c01015ea:	6a 52                	push   $0x52
c01015ec:	e9 45 fd ff ff       	jmp    c0101336 <common_interupt_handler>

c01015f1 <interupt_handler_83>:
c01015f1:	6a 00                	push   $0x0
c01015f3:	6a 53                	push   $0x53
c01015f5:	e9 3c fd ff ff       	jmp    c0101336 <common_interupt_handler>

c01015fa <interupt_handler_84>:
c01015fa:	6a 00                	push   $0x0
c01015fc:	6a 54                	push   $0x54
c01015fe:	e9 33 fd ff ff       	jmp    c0101336 <common_interupt_handler>

c0101603 <interupt_handler_85>:
c0101603:	6a 00                	push   $0x0
c0101605:	6a 55                	push   $0x55
c0101607:	e9 2a fd ff ff       	jmp    c0101336 <common_interupt_handler>

c010160c <interupt_handler_86>:
c010160c:	6a 00                	push   $0x0
c010160e:	6a 56                	push   $0x56
c0101610:	e9 21 fd ff ff       	jmp    c0101336 <common_interupt_handler>

c0101615 <interupt_handler_87>:
c0101615:	6a 00                	push   $0x0
c0101617:	6a 57                	push   $0x57
c0101619:	e9 18 fd ff ff       	jmp    c0101336 <common_interupt_handler>

c010161e <interupt_handler_88>:
c010161e:	6a 00                	push   $0x0
c0101620:	6a 58                	push   $0x58
c0101622:	e9 0f fd ff ff       	jmp    c0101336 <common_interupt_handler>

c0101627 <interupt_handler_89>:
c0101627:	6a 00                	push   $0x0
c0101629:	6a 59                	push   $0x59
c010162b:	e9 06 fd ff ff       	jmp    c0101336 <common_interupt_handler>

c0101630 <interupt_handler_90>:
c0101630:	6a 00                	push   $0x0
c0101632:	6a 5a                	push   $0x5a
c0101634:	e9 fd fc ff ff       	jmp    c0101336 <common_interupt_handler>

c0101639 <interupt_handler_91>:
c0101639:	6a 00                	push   $0x0
c010163b:	6a 5b                	push   $0x5b
c010163d:	e9 f4 fc ff ff       	jmp    c0101336 <common_interupt_handler>

c0101642 <interupt_handler_92>:
c0101642:	6a 00                	push   $0x0
c0101644:	6a 5c                	push   $0x5c
c0101646:	e9 eb fc ff ff       	jmp    c0101336 <common_interupt_handler>

c010164b <interupt_handler_93>:
c010164b:	6a 00                	push   $0x0
c010164d:	6a 5d                	push   $0x5d
c010164f:	e9 e2 fc ff ff       	jmp    c0101336 <common_interupt_handler>

c0101654 <interupt_handler_94>:
c0101654:	6a 00                	push   $0x0
c0101656:	6a 5e                	push   $0x5e
c0101658:	e9 d9 fc ff ff       	jmp    c0101336 <common_interupt_handler>

c010165d <interupt_handler_95>:
c010165d:	6a 00                	push   $0x0
c010165f:	6a 5f                	push   $0x5f
c0101661:	e9 d0 fc ff ff       	jmp    c0101336 <common_interupt_handler>

c0101666 <interupt_handler_96>:
c0101666:	6a 00                	push   $0x0
c0101668:	6a 60                	push   $0x60
c010166a:	e9 c7 fc ff ff       	jmp    c0101336 <common_interupt_handler>

c010166f <interupt_handler_97>:
c010166f:	6a 00                	push   $0x0
c0101671:	6a 61                	push   $0x61
c0101673:	e9 be fc ff ff       	jmp    c0101336 <common_interupt_handler>

c0101678 <interupt_handler_98>:
c0101678:	6a 00                	push   $0x0
c010167a:	6a 62                	push   $0x62
c010167c:	e9 b5 fc ff ff       	jmp    c0101336 <common_interupt_handler>

c0101681 <interupt_handler_99>:
c0101681:	6a 00                	push   $0x0
c0101683:	6a 63                	push   $0x63
c0101685:	e9 ac fc ff ff       	jmp    c0101336 <common_interupt_handler>

c010168a <interupt_handler_100>:
c010168a:	6a 00                	push   $0x0
c010168c:	6a 64                	push   $0x64
c010168e:	e9 a3 fc ff ff       	jmp    c0101336 <common_interupt_handler>

c0101693 <interupt_handler_101>:
c0101693:	6a 00                	push   $0x0
c0101695:	6a 65                	push   $0x65
c0101697:	e9 9a fc ff ff       	jmp    c0101336 <common_interupt_handler>

c010169c <interupt_handler_102>:
c010169c:	6a 00                	push   $0x0
c010169e:	6a 66                	push   $0x66
c01016a0:	e9 91 fc ff ff       	jmp    c0101336 <common_interupt_handler>

c01016a5 <interupt_handler_103>:
c01016a5:	6a 00                	push   $0x0
c01016a7:	6a 67                	push   $0x67
c01016a9:	e9 88 fc ff ff       	jmp    c0101336 <common_interupt_handler>

c01016ae <interupt_handler_104>:
c01016ae:	6a 00                	push   $0x0
c01016b0:	6a 68                	push   $0x68
c01016b2:	e9 7f fc ff ff       	jmp    c0101336 <common_interupt_handler>

c01016b7 <interupt_handler_105>:
c01016b7:	6a 00                	push   $0x0
c01016b9:	6a 69                	push   $0x69
c01016bb:	e9 76 fc ff ff       	jmp    c0101336 <common_interupt_handler>

c01016c0 <interupt_handler_106>:
c01016c0:	6a 00                	push   $0x0
c01016c2:	6a 6a                	push   $0x6a
c01016c4:	e9 6d fc ff ff       	jmp    c0101336 <common_interupt_handler>

c01016c9 <interupt_handler_107>:
c01016c9:	6a 00                	push   $0x0
c01016cb:	6a 6b                	push   $0x6b
c01016cd:	e9 64 fc ff ff       	jmp    c0101336 <common_interupt_handler>

c01016d2 <interupt_handler_108>:
c01016d2:	6a 00                	push   $0x0
c01016d4:	6a 6c                	push   $0x6c
c01016d6:	e9 5b fc ff ff       	jmp    c0101336 <common_interupt_handler>

c01016db <interupt_handler_109>:
c01016db:	6a 00                	push   $0x0
c01016dd:	6a 6d                	push   $0x6d
c01016df:	e9 52 fc ff ff       	jmp    c0101336 <common_interupt_handler>

c01016e4 <interupt_handler_110>:
c01016e4:	6a 00                	push   $0x0
c01016e6:	6a 6e                	push   $0x6e
c01016e8:	e9 49 fc ff ff       	jmp    c0101336 <common_interupt_handler>

c01016ed <interupt_handler_111>:
c01016ed:	6a 00                	push   $0x0
c01016ef:	6a 6f                	push   $0x6f
c01016f1:	e9 40 fc ff ff       	jmp    c0101336 <common_interupt_handler>

c01016f6 <interupt_handler_112>:
c01016f6:	6a 00                	push   $0x0
c01016f8:	6a 70                	push   $0x70
c01016fa:	e9 37 fc ff ff       	jmp    c0101336 <common_interupt_handler>

c01016ff <interupt_handler_113>:
c01016ff:	6a 00                	push   $0x0
c0101701:	6a 71                	push   $0x71
c0101703:	e9 2e fc ff ff       	jmp    c0101336 <common_interupt_handler>

c0101708 <interupt_handler_114>:
c0101708:	6a 00                	push   $0x0
c010170a:	6a 72                	push   $0x72
c010170c:	e9 25 fc ff ff       	jmp    c0101336 <common_interupt_handler>

c0101711 <interupt_handler_115>:
c0101711:	6a 00                	push   $0x0
c0101713:	6a 73                	push   $0x73
c0101715:	e9 1c fc ff ff       	jmp    c0101336 <common_interupt_handler>

c010171a <interupt_handler_116>:
c010171a:	6a 00                	push   $0x0
c010171c:	6a 74                	push   $0x74
c010171e:	e9 13 fc ff ff       	jmp    c0101336 <common_interupt_handler>

c0101723 <interupt_handler_117>:
c0101723:	6a 00                	push   $0x0
c0101725:	6a 75                	push   $0x75
c0101727:	e9 0a fc ff ff       	jmp    c0101336 <common_interupt_handler>

c010172c <interupt_handler_118>:
c010172c:	6a 00                	push   $0x0
c010172e:	6a 76                	push   $0x76
c0101730:	e9 01 fc ff ff       	jmp    c0101336 <common_interupt_handler>

c0101735 <interupt_handler_119>:
c0101735:	6a 00                	push   $0x0
c0101737:	6a 77                	push   $0x77
c0101739:	e9 f8 fb ff ff       	jmp    c0101336 <common_interupt_handler>

c010173e <interupt_handler_120>:
c010173e:	6a 00                	push   $0x0
c0101740:	6a 78                	push   $0x78
c0101742:	e9 ef fb ff ff       	jmp    c0101336 <common_interupt_handler>

c0101747 <interupt_handler_121>:
c0101747:	6a 00                	push   $0x0
c0101749:	6a 79                	push   $0x79
c010174b:	e9 e6 fb ff ff       	jmp    c0101336 <common_interupt_handler>

c0101750 <interupt_handler_122>:
c0101750:	6a 00                	push   $0x0
c0101752:	6a 7a                	push   $0x7a
c0101754:	e9 dd fb ff ff       	jmp    c0101336 <common_interupt_handler>

c0101759 <interupt_handler_123>:
c0101759:	6a 00                	push   $0x0
c010175b:	6a 7b                	push   $0x7b
c010175d:	e9 d4 fb ff ff       	jmp    c0101336 <common_interupt_handler>

c0101762 <interupt_handler_124>:
c0101762:	6a 00                	push   $0x0
c0101764:	6a 7c                	push   $0x7c
c0101766:	e9 cb fb ff ff       	jmp    c0101336 <common_interupt_handler>

c010176b <interupt_handler_125>:
c010176b:	6a 00                	push   $0x0
c010176d:	6a 7d                	push   $0x7d
c010176f:	e9 c2 fb ff ff       	jmp    c0101336 <common_interupt_handler>

c0101774 <interupt_handler_126>:
c0101774:	6a 00                	push   $0x0
c0101776:	6a 7e                	push   $0x7e
c0101778:	e9 b9 fb ff ff       	jmp    c0101336 <common_interupt_handler>

c010177d <interupt_handler_127>:
c010177d:	6a 00                	push   $0x0
c010177f:	6a 7f                	push   $0x7f
c0101781:	e9 b0 fb ff ff       	jmp    c0101336 <common_interupt_handler>

c0101786 <interupt_handler_129>:
c0101786:	6a 00                	push   $0x0
c0101788:	68 81 00 00 00       	push   $0x81
c010178d:	e9 a4 fb ff ff       	jmp    c0101336 <common_interupt_handler>

c0101792 <interupt_handler_130>:
c0101792:	6a 00                	push   $0x0
c0101794:	68 82 00 00 00       	push   $0x82
c0101799:	e9 98 fb ff ff       	jmp    c0101336 <common_interupt_handler>

c010179e <interupt_handler_131>:
c010179e:	6a 00                	push   $0x0
c01017a0:	68 83 00 00 00       	push   $0x83
c01017a5:	e9 8c fb ff ff       	jmp    c0101336 <common_interupt_handler>

c01017aa <interupt_handler_132>:
c01017aa:	6a 00                	push   $0x0
c01017ac:	68 84 00 00 00       	push   $0x84
c01017b1:	e9 80 fb ff ff       	jmp    c0101336 <common_interupt_handler>

c01017b6 <interupt_handler_133>:
c01017b6:	6a 00                	push   $0x0
c01017b8:	68 85 00 00 00       	push   $0x85
c01017bd:	e9 74 fb ff ff       	jmp    c0101336 <common_interupt_handler>

c01017c2 <interupt_handler_134>:
c01017c2:	6a 00                	push   $0x0
c01017c4:	68 86 00 00 00       	push   $0x86
c01017c9:	e9 68 fb ff ff       	jmp    c0101336 <common_interupt_handler>

c01017ce <interupt_handler_135>:
c01017ce:	6a 00                	push   $0x0
c01017d0:	68 87 00 00 00       	push   $0x87
c01017d5:	e9 5c fb ff ff       	jmp    c0101336 <common_interupt_handler>

c01017da <interupt_handler_136>:
c01017da:	6a 00                	push   $0x0
c01017dc:	68 88 00 00 00       	push   $0x88
c01017e1:	e9 50 fb ff ff       	jmp    c0101336 <common_interupt_handler>

c01017e6 <interupt_handler_137>:
c01017e6:	6a 00                	push   $0x0
c01017e8:	68 89 00 00 00       	push   $0x89
c01017ed:	e9 44 fb ff ff       	jmp    c0101336 <common_interupt_handler>

c01017f2 <interupt_handler_138>:
c01017f2:	6a 00                	push   $0x0
c01017f4:	68 8a 00 00 00       	push   $0x8a
c01017f9:	e9 38 fb ff ff       	jmp    c0101336 <common_interupt_handler>

c01017fe <interupt_handler_139>:
c01017fe:	6a 00                	push   $0x0
c0101800:	68 8b 00 00 00       	push   $0x8b
c0101805:	e9 2c fb ff ff       	jmp    c0101336 <common_interupt_handler>

c010180a <interupt_handler_140>:
c010180a:	6a 00                	push   $0x0
c010180c:	68 8c 00 00 00       	push   $0x8c
c0101811:	e9 20 fb ff ff       	jmp    c0101336 <common_interupt_handler>

c0101816 <interupt_handler_141>:
c0101816:	6a 00                	push   $0x0
c0101818:	68 8d 00 00 00       	push   $0x8d
c010181d:	e9 14 fb ff ff       	jmp    c0101336 <common_interupt_handler>

c0101822 <interupt_handler_142>:
c0101822:	6a 00                	push   $0x0
c0101824:	68 8e 00 00 00       	push   $0x8e
c0101829:	e9 08 fb ff ff       	jmp    c0101336 <common_interupt_handler>

c010182e <interupt_handler_143>:
c010182e:	6a 00                	push   $0x0
c0101830:	68 8f 00 00 00       	push   $0x8f
c0101835:	e9 fc fa ff ff       	jmp    c0101336 <common_interupt_handler>

c010183a <interupt_handler_144>:
c010183a:	6a 00                	push   $0x0
c010183c:	68 90 00 00 00       	push   $0x90
c0101841:	e9 f0 fa ff ff       	jmp    c0101336 <common_interupt_handler>

c0101846 <interupt_handler_145>:
c0101846:	6a 00                	push   $0x0
c0101848:	68 91 00 00 00       	push   $0x91
c010184d:	e9 e4 fa ff ff       	jmp    c0101336 <common_interupt_handler>

c0101852 <interupt_handler_146>:
c0101852:	6a 00                	push   $0x0
c0101854:	68 92 00 00 00       	push   $0x92
c0101859:	e9 d8 fa ff ff       	jmp    c0101336 <common_interupt_handler>

c010185e <interupt_handler_147>:
c010185e:	6a 00                	push   $0x0
c0101860:	68 93 00 00 00       	push   $0x93
c0101865:	e9 cc fa ff ff       	jmp    c0101336 <common_interupt_handler>

c010186a <interupt_handler_148>:
c010186a:	6a 00                	push   $0x0
c010186c:	68 94 00 00 00       	push   $0x94
c0101871:	e9 c0 fa ff ff       	jmp    c0101336 <common_interupt_handler>

c0101876 <interupt_handler_149>:
c0101876:	6a 00                	push   $0x0
c0101878:	68 95 00 00 00       	push   $0x95
c010187d:	e9 b4 fa ff ff       	jmp    c0101336 <common_interupt_handler>

c0101882 <interupt_handler_150>:
c0101882:	6a 00                	push   $0x0
c0101884:	68 96 00 00 00       	push   $0x96
c0101889:	e9 a8 fa ff ff       	jmp    c0101336 <common_interupt_handler>

c010188e <interupt_handler_151>:
c010188e:	6a 00                	push   $0x0
c0101890:	68 97 00 00 00       	push   $0x97
c0101895:	e9 9c fa ff ff       	jmp    c0101336 <common_interupt_handler>

c010189a <interupt_handler_152>:
c010189a:	6a 00                	push   $0x0
c010189c:	68 98 00 00 00       	push   $0x98
c01018a1:	e9 90 fa ff ff       	jmp    c0101336 <common_interupt_handler>

c01018a6 <interupt_handler_153>:
c01018a6:	6a 00                	push   $0x0
c01018a8:	68 99 00 00 00       	push   $0x99
c01018ad:	e9 84 fa ff ff       	jmp    c0101336 <common_interupt_handler>

c01018b2 <interupt_handler_154>:
c01018b2:	6a 00                	push   $0x0
c01018b4:	68 9a 00 00 00       	push   $0x9a
c01018b9:	e9 78 fa ff ff       	jmp    c0101336 <common_interupt_handler>

c01018be <interupt_handler_155>:
c01018be:	6a 00                	push   $0x0
c01018c0:	68 9b 00 00 00       	push   $0x9b
c01018c5:	e9 6c fa ff ff       	jmp    c0101336 <common_interupt_handler>

c01018ca <interupt_handler_156>:
c01018ca:	6a 00                	push   $0x0
c01018cc:	68 9c 00 00 00       	push   $0x9c
c01018d1:	e9 60 fa ff ff       	jmp    c0101336 <common_interupt_handler>

c01018d6 <interupt_handler_157>:
c01018d6:	6a 00                	push   $0x0
c01018d8:	68 9d 00 00 00       	push   $0x9d
c01018dd:	e9 54 fa ff ff       	jmp    c0101336 <common_interupt_handler>

c01018e2 <interupt_handler_158>:
c01018e2:	6a 00                	push   $0x0
c01018e4:	68 9e 00 00 00       	push   $0x9e
c01018e9:	e9 48 fa ff ff       	jmp    c0101336 <common_interupt_handler>

c01018ee <interupt_handler_159>:
c01018ee:	6a 00                	push   $0x0
c01018f0:	68 9f 00 00 00       	push   $0x9f
c01018f5:	e9 3c fa ff ff       	jmp    c0101336 <common_interupt_handler>

c01018fa <interupt_handler_160>:
c01018fa:	6a 00                	push   $0x0
c01018fc:	68 a0 00 00 00       	push   $0xa0
c0101901:	e9 30 fa ff ff       	jmp    c0101336 <common_interupt_handler>

c0101906 <interupt_handler_161>:
c0101906:	6a 00                	push   $0x0
c0101908:	68 a1 00 00 00       	push   $0xa1
c010190d:	e9 24 fa ff ff       	jmp    c0101336 <common_interupt_handler>

c0101912 <interupt_handler_162>:
c0101912:	6a 00                	push   $0x0
c0101914:	68 a2 00 00 00       	push   $0xa2
c0101919:	e9 18 fa ff ff       	jmp    c0101336 <common_interupt_handler>

c010191e <interupt_handler_163>:
c010191e:	6a 00                	push   $0x0
c0101920:	68 a3 00 00 00       	push   $0xa3
c0101925:	e9 0c fa ff ff       	jmp    c0101336 <common_interupt_handler>

c010192a <interupt_handler_164>:
c010192a:	6a 00                	push   $0x0
c010192c:	68 a4 00 00 00       	push   $0xa4
c0101931:	e9 00 fa ff ff       	jmp    c0101336 <common_interupt_handler>

c0101936 <interupt_handler_165>:
c0101936:	6a 00                	push   $0x0
c0101938:	68 a5 00 00 00       	push   $0xa5
c010193d:	e9 f4 f9 ff ff       	jmp    c0101336 <common_interupt_handler>

c0101942 <interupt_handler_166>:
c0101942:	6a 00                	push   $0x0
c0101944:	68 a6 00 00 00       	push   $0xa6
c0101949:	e9 e8 f9 ff ff       	jmp    c0101336 <common_interupt_handler>

c010194e <interupt_handler_167>:
c010194e:	6a 00                	push   $0x0
c0101950:	68 a7 00 00 00       	push   $0xa7
c0101955:	e9 dc f9 ff ff       	jmp    c0101336 <common_interupt_handler>

c010195a <interupt_handler_168>:
c010195a:	6a 00                	push   $0x0
c010195c:	68 a8 00 00 00       	push   $0xa8
c0101961:	e9 d0 f9 ff ff       	jmp    c0101336 <common_interupt_handler>

c0101966 <interupt_handler_169>:
c0101966:	6a 00                	push   $0x0
c0101968:	68 a9 00 00 00       	push   $0xa9
c010196d:	e9 c4 f9 ff ff       	jmp    c0101336 <common_interupt_handler>

c0101972 <interupt_handler_170>:
c0101972:	6a 00                	push   $0x0
c0101974:	68 aa 00 00 00       	push   $0xaa
c0101979:	e9 b8 f9 ff ff       	jmp    c0101336 <common_interupt_handler>

c010197e <interupt_handler_171>:
c010197e:	6a 00                	push   $0x0
c0101980:	68 ab 00 00 00       	push   $0xab
c0101985:	e9 ac f9 ff ff       	jmp    c0101336 <common_interupt_handler>

c010198a <interupt_handler_172>:
c010198a:	6a 00                	push   $0x0
c010198c:	68 ac 00 00 00       	push   $0xac
c0101991:	e9 a0 f9 ff ff       	jmp    c0101336 <common_interupt_handler>

c0101996 <interupt_handler_173>:
c0101996:	6a 00                	push   $0x0
c0101998:	68 ad 00 00 00       	push   $0xad
c010199d:	e9 94 f9 ff ff       	jmp    c0101336 <common_interupt_handler>

c01019a2 <interupt_handler_174>:
c01019a2:	6a 00                	push   $0x0
c01019a4:	68 ae 00 00 00       	push   $0xae
c01019a9:	e9 88 f9 ff ff       	jmp    c0101336 <common_interupt_handler>

c01019ae <interupt_handler_175>:
c01019ae:	6a 00                	push   $0x0
c01019b0:	68 af 00 00 00       	push   $0xaf
c01019b5:	e9 7c f9 ff ff       	jmp    c0101336 <common_interupt_handler>

c01019ba <interupt_handler_176>:
c01019ba:	6a 00                	push   $0x0
c01019bc:	68 b0 00 00 00       	push   $0xb0
c01019c1:	e9 70 f9 ff ff       	jmp    c0101336 <common_interupt_handler>

c01019c6 <interupt_handler_177>:
c01019c6:	6a 00                	push   $0x0
c01019c8:	68 b1 00 00 00       	push   $0xb1
c01019cd:	e9 64 f9 ff ff       	jmp    c0101336 <common_interupt_handler>

c01019d2 <interupt_handler_178>:
c01019d2:	6a 00                	push   $0x0
c01019d4:	68 b2 00 00 00       	push   $0xb2
c01019d9:	e9 58 f9 ff ff       	jmp    c0101336 <common_interupt_handler>

c01019de <interupt_handler_179>:
c01019de:	6a 00                	push   $0x0
c01019e0:	68 b3 00 00 00       	push   $0xb3
c01019e5:	e9 4c f9 ff ff       	jmp    c0101336 <common_interupt_handler>

c01019ea <interupt_handler_180>:
c01019ea:	6a 00                	push   $0x0
c01019ec:	68 b4 00 00 00       	push   $0xb4
c01019f1:	e9 40 f9 ff ff       	jmp    c0101336 <common_interupt_handler>

c01019f6 <interupt_handler_181>:
c01019f6:	6a 00                	push   $0x0
c01019f8:	68 b5 00 00 00       	push   $0xb5
c01019fd:	e9 34 f9 ff ff       	jmp    c0101336 <common_interupt_handler>

c0101a02 <interupt_handler_182>:
c0101a02:	6a 00                	push   $0x0
c0101a04:	68 b6 00 00 00       	push   $0xb6
c0101a09:	e9 28 f9 ff ff       	jmp    c0101336 <common_interupt_handler>

c0101a0e <interupt_handler_183>:
c0101a0e:	6a 00                	push   $0x0
c0101a10:	68 b7 00 00 00       	push   $0xb7
c0101a15:	e9 1c f9 ff ff       	jmp    c0101336 <common_interupt_handler>

c0101a1a <interupt_handler_184>:
c0101a1a:	6a 00                	push   $0x0
c0101a1c:	68 b8 00 00 00       	push   $0xb8
c0101a21:	e9 10 f9 ff ff       	jmp    c0101336 <common_interupt_handler>

c0101a26 <interupt_handler_185>:
c0101a26:	6a 00                	push   $0x0
c0101a28:	68 b9 00 00 00       	push   $0xb9
c0101a2d:	e9 04 f9 ff ff       	jmp    c0101336 <common_interupt_handler>

c0101a32 <interupt_handler_186>:
c0101a32:	6a 00                	push   $0x0
c0101a34:	68 ba 00 00 00       	push   $0xba
c0101a39:	e9 f8 f8 ff ff       	jmp    c0101336 <common_interupt_handler>

c0101a3e <interupt_handler_187>:
c0101a3e:	6a 00                	push   $0x0
c0101a40:	68 bb 00 00 00       	push   $0xbb
c0101a45:	e9 ec f8 ff ff       	jmp    c0101336 <common_interupt_handler>

c0101a4a <interupt_handler_188>:
c0101a4a:	6a 00                	push   $0x0
c0101a4c:	68 bc 00 00 00       	push   $0xbc
c0101a51:	e9 e0 f8 ff ff       	jmp    c0101336 <common_interupt_handler>

c0101a56 <interupt_handler_189>:
c0101a56:	6a 00                	push   $0x0
c0101a58:	68 bd 00 00 00       	push   $0xbd
c0101a5d:	e9 d4 f8 ff ff       	jmp    c0101336 <common_interupt_handler>

c0101a62 <interupt_handler_190>:
c0101a62:	6a 00                	push   $0x0
c0101a64:	68 be 00 00 00       	push   $0xbe
c0101a69:	e9 c8 f8 ff ff       	jmp    c0101336 <common_interupt_handler>

c0101a6e <interupt_handler_191>:
c0101a6e:	6a 00                	push   $0x0
c0101a70:	68 bf 00 00 00       	push   $0xbf
c0101a75:	e9 bc f8 ff ff       	jmp    c0101336 <common_interupt_handler>

c0101a7a <interupt_handler_192>:
c0101a7a:	6a 00                	push   $0x0
c0101a7c:	68 c0 00 00 00       	push   $0xc0
c0101a81:	e9 b0 f8 ff ff       	jmp    c0101336 <common_interupt_handler>

c0101a86 <interupt_handler_193>:
c0101a86:	6a 00                	push   $0x0
c0101a88:	68 c1 00 00 00       	push   $0xc1
c0101a8d:	e9 a4 f8 ff ff       	jmp    c0101336 <common_interupt_handler>

c0101a92 <interupt_handler_194>:
c0101a92:	6a 00                	push   $0x0
c0101a94:	68 c2 00 00 00       	push   $0xc2
c0101a99:	e9 98 f8 ff ff       	jmp    c0101336 <common_interupt_handler>

c0101a9e <interupt_handler_195>:
c0101a9e:	6a 00                	push   $0x0
c0101aa0:	68 c3 00 00 00       	push   $0xc3
c0101aa5:	e9 8c f8 ff ff       	jmp    c0101336 <common_interupt_handler>

c0101aaa <interupt_handler_196>:
c0101aaa:	6a 00                	push   $0x0
c0101aac:	68 c4 00 00 00       	push   $0xc4
c0101ab1:	e9 80 f8 ff ff       	jmp    c0101336 <common_interupt_handler>

c0101ab6 <interupt_handler_197>:
c0101ab6:	6a 00                	push   $0x0
c0101ab8:	68 c5 00 00 00       	push   $0xc5
c0101abd:	e9 74 f8 ff ff       	jmp    c0101336 <common_interupt_handler>

c0101ac2 <interupt_handler_198>:
c0101ac2:	6a 00                	push   $0x0
c0101ac4:	68 c6 00 00 00       	push   $0xc6
c0101ac9:	e9 68 f8 ff ff       	jmp    c0101336 <common_interupt_handler>

c0101ace <interupt_handler_199>:
c0101ace:	6a 00                	push   $0x0
c0101ad0:	68 c7 00 00 00       	push   $0xc7
c0101ad5:	e9 5c f8 ff ff       	jmp    c0101336 <common_interupt_handler>

c0101ada <interupt_handler_200>:
c0101ada:	6a 00                	push   $0x0
c0101adc:	68 c8 00 00 00       	push   $0xc8
c0101ae1:	e9 50 f8 ff ff       	jmp    c0101336 <common_interupt_handler>

c0101ae6 <interupt_handler_201>:
c0101ae6:	6a 00                	push   $0x0
c0101ae8:	68 c9 00 00 00       	push   $0xc9
c0101aed:	e9 44 f8 ff ff       	jmp    c0101336 <common_interupt_handler>

c0101af2 <interupt_handler_202>:
c0101af2:	6a 00                	push   $0x0
c0101af4:	68 ca 00 00 00       	push   $0xca
c0101af9:	e9 38 f8 ff ff       	jmp    c0101336 <common_interupt_handler>

c0101afe <interupt_handler_203>:
c0101afe:	6a 00                	push   $0x0
c0101b00:	68 cb 00 00 00       	push   $0xcb
c0101b05:	e9 2c f8 ff ff       	jmp    c0101336 <common_interupt_handler>

c0101b0a <interupt_handler_204>:
c0101b0a:	6a 00                	push   $0x0
c0101b0c:	68 cc 00 00 00       	push   $0xcc
c0101b11:	e9 20 f8 ff ff       	jmp    c0101336 <common_interupt_handler>

c0101b16 <interupt_handler_205>:
c0101b16:	6a 00                	push   $0x0
c0101b18:	68 cd 00 00 00       	push   $0xcd
c0101b1d:	e9 14 f8 ff ff       	jmp    c0101336 <common_interupt_handler>

c0101b22 <interupt_handler_206>:
c0101b22:	6a 00                	push   $0x0
c0101b24:	68 ce 00 00 00       	push   $0xce
c0101b29:	e9 08 f8 ff ff       	jmp    c0101336 <common_interupt_handler>

c0101b2e <interupt_handler_207>:
c0101b2e:	6a 00                	push   $0x0
c0101b30:	68 cf 00 00 00       	push   $0xcf
c0101b35:	e9 fc f7 ff ff       	jmp    c0101336 <common_interupt_handler>

c0101b3a <interupt_handler_208>:
c0101b3a:	6a 00                	push   $0x0
c0101b3c:	68 d0 00 00 00       	push   $0xd0
c0101b41:	e9 f0 f7 ff ff       	jmp    c0101336 <common_interupt_handler>

c0101b46 <interupt_handler_209>:
c0101b46:	6a 00                	push   $0x0
c0101b48:	68 d1 00 00 00       	push   $0xd1
c0101b4d:	e9 e4 f7 ff ff       	jmp    c0101336 <common_interupt_handler>

c0101b52 <interupt_handler_210>:
c0101b52:	6a 00                	push   $0x0
c0101b54:	68 d2 00 00 00       	push   $0xd2
c0101b59:	e9 d8 f7 ff ff       	jmp    c0101336 <common_interupt_handler>

c0101b5e <interupt_handler_211>:
c0101b5e:	6a 00                	push   $0x0
c0101b60:	68 d3 00 00 00       	push   $0xd3
c0101b65:	e9 cc f7 ff ff       	jmp    c0101336 <common_interupt_handler>

c0101b6a <interupt_handler_212>:
c0101b6a:	6a 00                	push   $0x0
c0101b6c:	68 d4 00 00 00       	push   $0xd4
c0101b71:	e9 c0 f7 ff ff       	jmp    c0101336 <common_interupt_handler>

c0101b76 <interupt_handler_213>:
c0101b76:	6a 00                	push   $0x0
c0101b78:	68 d5 00 00 00       	push   $0xd5
c0101b7d:	e9 b4 f7 ff ff       	jmp    c0101336 <common_interupt_handler>

c0101b82 <interupt_handler_214>:
c0101b82:	6a 00                	push   $0x0
c0101b84:	68 d6 00 00 00       	push   $0xd6
c0101b89:	e9 a8 f7 ff ff       	jmp    c0101336 <common_interupt_handler>

c0101b8e <interupt_handler_215>:
c0101b8e:	6a 00                	push   $0x0
c0101b90:	68 d7 00 00 00       	push   $0xd7
c0101b95:	e9 9c f7 ff ff       	jmp    c0101336 <common_interupt_handler>

c0101b9a <interupt_handler_216>:
c0101b9a:	6a 00                	push   $0x0
c0101b9c:	68 d8 00 00 00       	push   $0xd8
c0101ba1:	e9 90 f7 ff ff       	jmp    c0101336 <common_interupt_handler>

c0101ba6 <interupt_handler_217>:
c0101ba6:	6a 00                	push   $0x0
c0101ba8:	68 d9 00 00 00       	push   $0xd9
c0101bad:	e9 84 f7 ff ff       	jmp    c0101336 <common_interupt_handler>

c0101bb2 <interupt_handler_218>:
c0101bb2:	6a 00                	push   $0x0
c0101bb4:	68 da 00 00 00       	push   $0xda
c0101bb9:	e9 78 f7 ff ff       	jmp    c0101336 <common_interupt_handler>

c0101bbe <interupt_handler_219>:
c0101bbe:	6a 00                	push   $0x0
c0101bc0:	68 db 00 00 00       	push   $0xdb
c0101bc5:	e9 6c f7 ff ff       	jmp    c0101336 <common_interupt_handler>

c0101bca <interupt_handler_220>:
c0101bca:	6a 00                	push   $0x0
c0101bcc:	68 dc 00 00 00       	push   $0xdc
c0101bd1:	e9 60 f7 ff ff       	jmp    c0101336 <common_interupt_handler>

c0101bd6 <interupt_handler_221>:
c0101bd6:	6a 00                	push   $0x0
c0101bd8:	68 dd 00 00 00       	push   $0xdd
c0101bdd:	e9 54 f7 ff ff       	jmp    c0101336 <common_interupt_handler>

c0101be2 <interupt_handler_222>:
c0101be2:	6a 00                	push   $0x0
c0101be4:	68 de 00 00 00       	push   $0xde
c0101be9:	e9 48 f7 ff ff       	jmp    c0101336 <common_interupt_handler>

c0101bee <interupt_handler_223>:
c0101bee:	6a 00                	push   $0x0
c0101bf0:	68 df 00 00 00       	push   $0xdf
c0101bf5:	e9 3c f7 ff ff       	jmp    c0101336 <common_interupt_handler>

c0101bfa <interupt_handler_224>:
c0101bfa:	6a 00                	push   $0x0
c0101bfc:	68 e0 00 00 00       	push   $0xe0
c0101c01:	e9 30 f7 ff ff       	jmp    c0101336 <common_interupt_handler>

c0101c06 <interupt_handler_225>:
c0101c06:	6a 00                	push   $0x0
c0101c08:	68 e1 00 00 00       	push   $0xe1
c0101c0d:	e9 24 f7 ff ff       	jmp    c0101336 <common_interupt_handler>

c0101c12 <interupt_handler_226>:
c0101c12:	6a 00                	push   $0x0
c0101c14:	68 e2 00 00 00       	push   $0xe2
c0101c19:	e9 18 f7 ff ff       	jmp    c0101336 <common_interupt_handler>

c0101c1e <interupt_handler_227>:
c0101c1e:	6a 00                	push   $0x0
c0101c20:	68 e3 00 00 00       	push   $0xe3
c0101c25:	e9 0c f7 ff ff       	jmp    c0101336 <common_interupt_handler>

c0101c2a <interupt_handler_228>:
c0101c2a:	6a 00                	push   $0x0
c0101c2c:	68 e4 00 00 00       	push   $0xe4
c0101c31:	e9 00 f7 ff ff       	jmp    c0101336 <common_interupt_handler>

c0101c36 <interupt_handler_229>:
c0101c36:	6a 00                	push   $0x0
c0101c38:	68 e5 00 00 00       	push   $0xe5
c0101c3d:	e9 f4 f6 ff ff       	jmp    c0101336 <common_interupt_handler>

c0101c42 <interupt_handler_230>:
c0101c42:	6a 00                	push   $0x0
c0101c44:	68 e6 00 00 00       	push   $0xe6
c0101c49:	e9 e8 f6 ff ff       	jmp    c0101336 <common_interupt_handler>

c0101c4e <interupt_handler_231>:
c0101c4e:	6a 00                	push   $0x0
c0101c50:	68 e7 00 00 00       	push   $0xe7
c0101c55:	e9 dc f6 ff ff       	jmp    c0101336 <common_interupt_handler>

c0101c5a <interupt_handler_232>:
c0101c5a:	6a 00                	push   $0x0
c0101c5c:	68 e8 00 00 00       	push   $0xe8
c0101c61:	e9 d0 f6 ff ff       	jmp    c0101336 <common_interupt_handler>

c0101c66 <interupt_handler_233>:
c0101c66:	6a 00                	push   $0x0
c0101c68:	68 e9 00 00 00       	push   $0xe9
c0101c6d:	e9 c4 f6 ff ff       	jmp    c0101336 <common_interupt_handler>

c0101c72 <interupt_handler_234>:
c0101c72:	6a 00                	push   $0x0
c0101c74:	68 ea 00 00 00       	push   $0xea
c0101c79:	e9 b8 f6 ff ff       	jmp    c0101336 <common_interupt_handler>

c0101c7e <interupt_handler_235>:
c0101c7e:	6a 00                	push   $0x0
c0101c80:	68 eb 00 00 00       	push   $0xeb
c0101c85:	e9 ac f6 ff ff       	jmp    c0101336 <common_interupt_handler>

c0101c8a <interupt_handler_236>:
c0101c8a:	6a 00                	push   $0x0
c0101c8c:	68 ec 00 00 00       	push   $0xec
c0101c91:	e9 a0 f6 ff ff       	jmp    c0101336 <common_interupt_handler>

c0101c96 <interupt_handler_237>:
c0101c96:	6a 00                	push   $0x0
c0101c98:	68 ed 00 00 00       	push   $0xed
c0101c9d:	e9 94 f6 ff ff       	jmp    c0101336 <common_interupt_handler>

c0101ca2 <interupt_handler_238>:
c0101ca2:	6a 00                	push   $0x0
c0101ca4:	68 ee 00 00 00       	push   $0xee
c0101ca9:	e9 88 f6 ff ff       	jmp    c0101336 <common_interupt_handler>

c0101cae <interupt_handler_239>:
c0101cae:	6a 00                	push   $0x0
c0101cb0:	68 ef 00 00 00       	push   $0xef
c0101cb5:	e9 7c f6 ff ff       	jmp    c0101336 <common_interupt_handler>

c0101cba <interupt_handler_240>:
c0101cba:	6a 00                	push   $0x0
c0101cbc:	68 f0 00 00 00       	push   $0xf0
c0101cc1:	e9 70 f6 ff ff       	jmp    c0101336 <common_interupt_handler>

c0101cc6 <interupt_handler_241>:
c0101cc6:	6a 00                	push   $0x0
c0101cc8:	68 f1 00 00 00       	push   $0xf1
c0101ccd:	e9 64 f6 ff ff       	jmp    c0101336 <common_interupt_handler>

c0101cd2 <interupt_handler_242>:
c0101cd2:	6a 00                	push   $0x0
c0101cd4:	68 f2 00 00 00       	push   $0xf2
c0101cd9:	e9 58 f6 ff ff       	jmp    c0101336 <common_interupt_handler>

c0101cde <interupt_handler_243>:
c0101cde:	6a 00                	push   $0x0
c0101ce0:	68 f3 00 00 00       	push   $0xf3
c0101ce5:	e9 4c f6 ff ff       	jmp    c0101336 <common_interupt_handler>

c0101cea <interupt_handler_244>:
c0101cea:	6a 00                	push   $0x0
c0101cec:	68 f4 00 00 00       	push   $0xf4
c0101cf1:	e9 40 f6 ff ff       	jmp    c0101336 <common_interupt_handler>

c0101cf6 <interupt_handler_245>:
c0101cf6:	6a 00                	push   $0x0
c0101cf8:	68 f5 00 00 00       	push   $0xf5
c0101cfd:	e9 34 f6 ff ff       	jmp    c0101336 <common_interupt_handler>

c0101d02 <interupt_handler_246>:
c0101d02:	6a 00                	push   $0x0
c0101d04:	68 f6 00 00 00       	push   $0xf6
c0101d09:	e9 28 f6 ff ff       	jmp    c0101336 <common_interupt_handler>

c0101d0e <interupt_handler_247>:
c0101d0e:	6a 00                	push   $0x0
c0101d10:	68 f7 00 00 00       	push   $0xf7
c0101d15:	e9 1c f6 ff ff       	jmp    c0101336 <common_interupt_handler>

c0101d1a <interupt_handler_248>:
c0101d1a:	6a 00                	push   $0x0
c0101d1c:	68 f8 00 00 00       	push   $0xf8
c0101d21:	e9 10 f6 ff ff       	jmp    c0101336 <common_interupt_handler>

c0101d26 <interupt_handler_249>:
c0101d26:	6a 00                	push   $0x0
c0101d28:	68 f9 00 00 00       	push   $0xf9
c0101d2d:	e9 04 f6 ff ff       	jmp    c0101336 <common_interupt_handler>

c0101d32 <interupt_handler_250>:
c0101d32:	6a 00                	push   $0x0
c0101d34:	68 fa 00 00 00       	push   $0xfa
c0101d39:	e9 f8 f5 ff ff       	jmp    c0101336 <common_interupt_handler>

c0101d3e <interupt_handler_251>:
c0101d3e:	6a 00                	push   $0x0
c0101d40:	68 fb 00 00 00       	push   $0xfb
c0101d45:	e9 ec f5 ff ff       	jmp    c0101336 <common_interupt_handler>

c0101d4a <interupt_handler_252>:
c0101d4a:	6a 00                	push   $0x0
c0101d4c:	68 fc 00 00 00       	push   $0xfc
c0101d51:	e9 e0 f5 ff ff       	jmp    c0101336 <common_interupt_handler>

c0101d56 <interupt_handler_253>:
c0101d56:	6a 00                	push   $0x0
c0101d58:	68 fd 00 00 00       	push   $0xfd
c0101d5d:	e9 d4 f5 ff ff       	jmp    c0101336 <common_interupt_handler>

c0101d62 <interupt_handler_254>:
c0101d62:	6a 00                	push   $0x0
c0101d64:	68 fe 00 00 00       	push   $0xfe
c0101d69:	e9 c8 f5 ff ff       	jmp    c0101336 <common_interupt_handler>

c0101d6e <interupt_handler_255>:
c0101d6e:	6a 00                	push   $0x0
c0101d70:	68 ff 00 00 00       	push   $0xff
c0101d75:	e9 bc f5 ff ff       	jmp    c0101336 <common_interupt_handler>

c0101d7a <load_idt>:
c0101d7a:	50                   	push   %eax
c0101d7b:	8b 44 24 08          	mov    0x8(%esp),%eax
c0101d7f:	0f 01 18             	lidtl  (%eax)
c0101d82:	fb                   	sti    
c0101d83:	58                   	pop    %eax
c0101d84:	c3                   	ret    
c0101d85:	66 90                	xchg   %ax,%ax
c0101d87:	66 90                	xchg   %ax,%ax
c0101d89:	66 90                	xchg   %ax,%ax
c0101d8b:	66 90                	xchg   %ax,%ax
c0101d8d:	66 90                	xchg   %ax,%ax
c0101d8f:	90                   	nop

c0101d90 <allocate_next_page>:
c0101d90:	80 3d d4 e0 12 c0 00 	cmpb   $0x0,0xc012e0d4
c0101d97:	b8 00 90 10 c0       	mov    $0xc0109000,%eax
c0101d9c:	75 1c                	jne    c0101dba <allocate_next_page+0x2a>
c0101d9e:	a1 d0 e0 12 c0       	mov    0xc012e0d0,%eax
c0101da3:	ba 00 90 10 c0       	mov    $0xc0109000,%edx
c0101da8:	85 c0                	test   %eax,%eax
c0101daa:	0f 44 c2             	cmove  %edx,%eax
c0101dad:	eb 0b                	jmp    c0101dba <allocate_next_page+0x2a>
c0101daf:	90                   	nop
c0101db0:	8b 10                	mov    (%eax),%edx
c0101db2:	83 fa ff             	cmp    $0xffffffff,%edx
c0101db5:	75 19                	jne    c0101dd0 <allocate_next_page+0x40>
c0101db7:	83 c0 04             	add    $0x4,%eax
c0101dba:	3d 00 90 12 c0       	cmp    $0xc0129000,%eax
c0101dbf:	72 ef                	jb     c0101db0 <allocate_next_page+0x20>
c0101dc1:	31 c0                	xor    %eax,%eax
c0101dc3:	c3                   	ret    
c0101dc4:	8d b6 00 00 00 00    	lea    0x0(%esi),%esi
c0101dca:	8d bf 00 00 00 00    	lea    0x0(%edi),%edi
c0101dd0:	53                   	push   %ebx
c0101dd1:	31 db                	xor    %ebx,%ebx
c0101dd3:	f6 c2 01             	test   $0x1,%dl
c0101dd6:	b9 01 00 00 00       	mov    $0x1,%ecx
c0101ddb:	74 2c                	je     c0101e09 <allocate_next_page+0x79>
c0101ddd:	8d 76 00             	lea    0x0(%esi),%esi
c0101de0:	01 c9                	add    %ecx,%ecx
c0101de2:	83 c3 01             	add    $0x1,%ebx
c0101de5:	85 d1                	test   %edx,%ecx
c0101de7:	75 f7                	jne    c0101de0 <allocate_next_page+0x50>
c0101de9:	0f b6 db             	movzbl %bl,%ebx
c0101dec:	09 ca                	or     %ecx,%edx
c0101dee:	a3 d0 e0 12 c0       	mov    %eax,0xc012e0d0
c0101df3:	c6 05 d4 e0 12 c0 00 	movb   $0x0,0xc012e0d4
c0101dfa:	89 10                	mov    %edx,(%eax)
c0101dfc:	2d 00 90 10 c0       	sub    $0xc0109000,%eax
c0101e01:	8d 04 c3             	lea    (%ebx,%eax,8),%eax
c0101e04:	5b                   	pop    %ebx
c0101e05:	c1 e0 0c             	shl    $0xc,%eax
c0101e08:	c3                   	ret    
c0101e09:	31 db                	xor    %ebx,%ebx
c0101e0b:	eb df                	jmp    c0101dec <allocate_next_page+0x5c>
c0101e0d:	8d 76 00             	lea    0x0(%esi),%esi

c0101e10 <free_physical_page>:
c0101e10:	8b 4c 24 04          	mov    0x4(%esp),%ecx
c0101e14:	b8 fe ff ff ff       	mov    $0xfffffffe,%eax
c0101e19:	c6 05 d4 e0 12 c0 01 	movb   $0x1,0xc012e0d4
c0101e20:	89 ca                	mov    %ecx,%edx
c0101e22:	c1 e9 0c             	shr    $0xc,%ecx
c0101e25:	c1 ea 11             	shr    $0x11,%edx
c0101e28:	83 e1 1f             	and    $0x1f,%ecx
c0101e2b:	d3 c0                	rol    %cl,%eax
c0101e2d:	21 04 95 00 90 10 c0 	and    %eax,-0x3fef7000(,%edx,4)
c0101e34:	c3                   	ret    
c0101e35:	8d 74 26 00          	lea    0x0(%esi,%eiz,1),%esi
c0101e39:	8d bc 27 00 00 00 00 	lea    0x0(%edi,%eiz,1),%edi

c0101e40 <check_used>:
c0101e40:	8b 4c 24 04          	mov    0x4(%esp),%ecx
c0101e44:	b8 01 00 00 00       	mov    $0x1,%eax
c0101e49:	89 ca                	mov    %ecx,%edx
c0101e4b:	c1 e9 0c             	shr    $0xc,%ecx
c0101e4e:	c1 ea 11             	shr    $0x11,%edx
c0101e51:	d3 e0                	shl    %cl,%eax
c0101e53:	85 04 95 00 90 10 c0 	test   %eax,-0x3fef7000(,%edx,4)
c0101e5a:	0f 95 c0             	setne  %al
c0101e5d:	c3                   	ret    
c0101e5e:	66 90                	xchg   %ax,%ax

c0101e60 <mark_used>:
c0101e60:	57                   	push   %edi
c0101e61:	56                   	push   %esi
c0101e62:	be 01 00 00 00       	mov    $0x1,%esi
c0101e67:	53                   	push   %ebx
c0101e68:	8b 4c 24 10          	mov    0x10(%esp),%ecx
c0101e6c:	8b 44 24 14          	mov    0x14(%esp),%eax
c0101e70:	89 ca                	mov    %ecx,%edx
c0101e72:	c1 e9 0c             	shr    $0xc,%ecx
c0101e75:	c1 ea 11             	shr    $0x11,%edx
c0101e78:	83 e1 1f             	and    $0x1f,%ecx
c0101e7b:	85 c0                	test   %eax,%eax
c0101e7d:	8d 3c 95 00 90 10 c0 	lea    -0x3fef7000(,%edx,4),%edi
c0101e84:	74 3a                	je     c0101ec0 <mark_used+0x60>
c0101e86:	8d 76 00             	lea    0x0(%esi),%esi
c0101e89:	8d bc 27 00 00 00 00 	lea    0x0(%edi,%eiz,1),%edi
c0101e90:	31 d2                	xor    %edx,%edx
c0101e92:	eb 10                	jmp    c0101ea4 <mark_used+0x44>
c0101e94:	8d b6 00 00 00 00    	lea    0x0(%esi),%esi
c0101e9a:	8d bf 00 00 00 00    	lea    0x0(%edi),%edi
c0101ea0:	85 c0                	test   %eax,%eax
c0101ea2:	74 11                	je     c0101eb5 <mark_used+0x55>
c0101ea4:	89 f3                	mov    %esi,%ebx
c0101ea6:	83 e8 01             	sub    $0x1,%eax
c0101ea9:	d3 e3                	shl    %cl,%ebx
c0101eab:	83 c1 01             	add    $0x1,%ecx
c0101eae:	09 da                	or     %ebx,%edx
c0101eb0:	83 f9 1f             	cmp    $0x1f,%ecx
c0101eb3:	76 eb                	jbe    c0101ea0 <mark_used+0x40>
c0101eb5:	09 17                	or     %edx,(%edi)
c0101eb7:	31 c9                	xor    %ecx,%ecx
c0101eb9:	83 c7 04             	add    $0x4,%edi
c0101ebc:	85 c0                	test   %eax,%eax
c0101ebe:	75 d0                	jne    c0101e90 <mark_used+0x30>
c0101ec0:	5b                   	pop    %ebx
c0101ec1:	5e                   	pop    %esi
c0101ec2:	5f                   	pop    %edi
c0101ec3:	c3                   	ret    
c0101ec4:	8d b6 00 00 00 00    	lea    0x0(%esi),%esi
c0101eca:	8d bf 00 00 00 00    	lea    0x0(%edi),%edi

c0101ed0 <map_page>:
c0101ed0:	55                   	push   %ebp
c0101ed1:	57                   	push   %edi
c0101ed2:	56                   	push   %esi
c0101ed3:	53                   	push   %ebx
c0101ed4:	83 ec 1c             	sub    $0x1c,%esp
c0101ed7:	8b 74 24 30          	mov    0x30(%esp),%esi
c0101edb:	8b 54 24 34          	mov    0x34(%esp),%edx
c0101edf:	8b 5c 24 38          	mov    0x38(%esp),%ebx
c0101ee3:	81 e6 00 f0 ff ff    	and    $0xfffff000,%esi
c0101ee9:	81 e2 00 f0 ff ff    	and    $0xfffff000,%edx
c0101eef:	89 f1                	mov    %esi,%ecx
c0101ef1:	89 f5                	mov    %esi,%ebp
c0101ef3:	c1 e9 16             	shr    $0x16,%ecx
c0101ef6:	c1 ed 0c             	shr    $0xc,%ebp
c0101ef9:	89 cf                	mov    %ecx,%edi
c0101efb:	81 e5 ff 03 00 00    	and    $0x3ff,%ebp
c0101f01:	c1 e7 0c             	shl    $0xc,%edi
c0101f04:	81 cf 00 00 c0 ff    	or     $0xffc00000,%edi
c0101f0a:	f6 04 8d 00 f0 ff ff 	testb  $0x1,-0x1000(,%ecx,4)
c0101f11:	01 
c0101f12:	75 32                	jne    c0101f46 <map_page+0x76>
c0101f14:	89 4c 24 0c          	mov    %ecx,0xc(%esp)
c0101f18:	89 54 24 08          	mov    %edx,0x8(%esp)
c0101f1c:	e8 6f fe ff ff       	call   c0101d90 <allocate_next_page>
c0101f21:	8b 4c 24 0c          	mov    0xc(%esp),%ecx
c0101f25:	83 c8 03             	or     $0x3,%eax
c0101f28:	83 ec 04             	sub    $0x4,%esp
c0101f2b:	89 04 8d 00 f0 ff ff 	mov    %eax,-0x1000(,%ecx,4)
c0101f32:	68 00 10 00 00       	push   $0x1000
c0101f37:	6a 00                	push   $0x0
c0101f39:	57                   	push   %edi
c0101f3a:	e8 21 1f 00 00       	call   c0103e60 <memset>
c0101f3f:	83 c4 10             	add    $0x10,%esp
c0101f42:	8b 54 24 08          	mov    0x8(%esp),%edx
c0101f46:	81 e3 fe 0f 00 00    	and    $0xffe,%ebx
c0101f4c:	89 f0                	mov    %esi,%eax
c0101f4e:	83 cb 01             	or     $0x1,%ebx
c0101f51:	09 d3                	or     %edx,%ebx
c0101f53:	89 1c af             	mov    %ebx,(%edi,%ebp,4)
c0101f56:	83 c4 1c             	add    $0x1c,%esp
c0101f59:	5b                   	pop    %ebx
c0101f5a:	5e                   	pop    %esi
c0101f5b:	5f                   	pop    %edi
c0101f5c:	5d                   	pop    %ebp
c0101f5d:	c3                   	ret    
c0101f5e:	66 90                	xchg   %ax,%ax

c0101f60 <map_virtual_address>:
c0101f60:	53                   	push   %ebx
c0101f61:	83 ec 08             	sub    $0x8,%esp
c0101f64:	8b 5c 24 14          	mov    0x14(%esp),%ebx
c0101f68:	e8 23 fe ff ff       	call   c0101d90 <allocate_next_page>
c0101f6d:	83 ec 04             	sub    $0x4,%esp
c0101f70:	0f b7 db             	movzwl %bx,%ebx
c0101f73:	53                   	push   %ebx
c0101f74:	50                   	push   %eax
c0101f75:	ff 74 24 1c          	pushl  0x1c(%esp)
c0101f79:	e8 52 ff ff ff       	call   c0101ed0 <map_page>
c0101f7e:	83 c4 18             	add    $0x18,%esp
c0101f81:	5b                   	pop    %ebx
c0101f82:	c3                   	ret    
c0101f83:	8d b6 00 00 00 00    	lea    0x0(%esi),%esi
c0101f89:	8d bc 27 00 00 00 00 	lea    0x0(%edi,%eiz,1),%edi

c0101f90 <unmap_virtual_address>:
c0101f90:	56                   	push   %esi
c0101f91:	53                   	push   %ebx
c0101f92:	be 01 00 00 00       	mov    $0x1,%esi
c0101f97:	8b 5c 24 0c          	mov    0xc(%esp),%ebx
c0101f9b:	81 e3 00 f0 ff ff    	and    $0xfffff000,%ebx
c0101fa1:	89 da                	mov    %ebx,%edx
c0101fa3:	89 d8                	mov    %ebx,%eax
c0101fa5:	c1 ea 16             	shr    $0x16,%edx
c0101fa8:	c1 e8 0a             	shr    $0xa,%eax
c0101fab:	c1 e2 0c             	shl    $0xc,%edx
c0101fae:	25 fc 0f 00 00       	and    $0xffc,%eax
c0101fb3:	81 ca 00 00 c0 ff    	or     $0xffc00000,%edx
c0101fb9:	01 d0                	add    %edx,%eax
c0101fbb:	8b 08                	mov    (%eax),%ecx
c0101fbd:	c7 00 00 00 00 00    	movl   $0x0,(%eax)
c0101fc3:	0f 01 3b             	invlpg (%ebx)
c0101fc6:	89 c8                	mov    %ecx,%eax
c0101fc8:	c1 e9 0c             	shr    $0xc,%ecx
c0101fcb:	89 f3                	mov    %esi,%ebx
c0101fcd:	83 e1 1f             	and    $0x1f,%ecx
c0101fd0:	c1 e8 11             	shr    $0x11,%eax
c0101fd3:	c6 05 d4 e0 12 c0 01 	movb   $0x1,0xc012e0d4
c0101fda:	d3 e3                	shl    %cl,%ebx
c0101fdc:	89 d9                	mov    %ebx,%ecx
c0101fde:	f7 d1                	not    %ecx
c0101fe0:	21 0c 85 00 90 10 c0 	and    %ecx,-0x3fef7000(,%eax,4)
c0101fe7:	89 d0                	mov    %edx,%eax
c0101fe9:	8d 8a 00 10 00 00    	lea    0x1000(%edx),%ecx
c0101fef:	eb 18                	jmp    c0102009 <unmap_virtual_address+0x79>
c0101ff1:	eb 0d                	jmp    c0102000 <unmap_virtual_address+0x70>
c0101ff3:	90                   	nop
c0101ff4:	90                   	nop
c0101ff5:	90                   	nop
c0101ff6:	90                   	nop
c0101ff7:	90                   	nop
c0101ff8:	90                   	nop
c0101ff9:	90                   	nop
c0101ffa:	90                   	nop
c0101ffb:	90                   	nop
c0101ffc:	90                   	nop
c0101ffd:	90                   	nop
c0101ffe:	90                   	nop
c0101fff:	90                   	nop
c0102000:	83 c0 04             	add    $0x4,%eax
c0102003:	89 d3                	mov    %edx,%ebx
c0102005:	39 c1                	cmp    %eax,%ecx
c0102007:	74 92                	je     c0101f9b <unmap_virtual_address+0xb>
c0102009:	f6 00 01             	testb  $0x1,(%eax)
c010200c:	74 f2                	je     c0102000 <unmap_virtual_address+0x70>
c010200e:	5b                   	pop    %ebx
c010200f:	5e                   	pop    %esi
c0102010:	c3                   	ret    
c0102011:	eb 0d                	jmp    c0102020 <get_physical_address>
c0102013:	90                   	nop
c0102014:	90                   	nop
c0102015:	90                   	nop
c0102016:	90                   	nop
c0102017:	90                   	nop
c0102018:	90                   	nop
c0102019:	90                   	nop
c010201a:	90                   	nop
c010201b:	90                   	nop
c010201c:	90                   	nop
c010201d:	90                   	nop
c010201e:	90                   	nop
c010201f:	90                   	nop

c0102020 <get_physical_address>:
c0102020:	53                   	push   %ebx
c0102021:	8b 5c 24 08          	mov    0x8(%esp),%ebx
c0102025:	89 da                	mov    %ebx,%edx
c0102027:	81 e3 ff 0f 00 00    	and    $0xfff,%ebx
c010202d:	81 e2 00 f0 ff ff    	and    $0xfffff000,%edx
c0102033:	89 d1                	mov    %edx,%ecx
c0102035:	c1 ea 0c             	shr    $0xc,%edx
c0102038:	c1 e9 16             	shr    $0x16,%ecx
c010203b:	81 e2 ff 03 00 00    	and    $0x3ff,%edx
c0102041:	c1 e1 0c             	shl    $0xc,%ecx
c0102044:	81 c9 00 00 c0 ff    	or     $0xffc00000,%ecx
c010204a:	8b 04 91             	mov    (%ecx,%edx,4),%eax
c010204d:	25 00 f0 ff ff       	and    $0xfffff000,%eax
c0102052:	09 d8                	or     %ebx,%eax
c0102054:	5b                   	pop    %ebx
c0102055:	c3                   	ret    
c0102056:	8d 76 00             	lea    0x0(%esi),%esi
c0102059:	8d bc 27 00 00 00 00 	lea    0x0(%edi,%eiz,1),%edi

c0102060 <init_bitmap>:
c0102060:	55                   	push   %ebp
c0102061:	b8 00 00 10 00       	mov    $0x100000,%eax
c0102066:	57                   	push   %edi
c0102067:	56                   	push   %esi
c0102068:	53                   	push   %ebx
c0102069:	c1 e8 0c             	shr    $0xc,%eax
c010206c:	83 ec 04             	sub    $0x4,%esp
c010206f:	85 c0                	test   %eax,%eax
c0102071:	8b 5c 24 18          	mov    0x18(%esp),%ebx
c0102075:	89 04 24             	mov    %eax,(%esp)
c0102078:	74 44                	je     c01020be <init_bitmap+0x5e>
c010207a:	bf 00 90 10 c0       	mov    $0xc0109000,%edi
c010207f:	be 01 00 00 00       	mov    $0x1,%esi
c0102084:	8d b6 00 00 00 00    	lea    0x0(%esi),%esi
c010208a:	8d bf 00 00 00 00    	lea    0x0(%edi),%edi
c0102090:	31 d2                	xor    %edx,%edx
c0102092:	31 c9                	xor    %ecx,%ecx
c0102094:	eb 0e                	jmp    c01020a4 <init_bitmap+0x44>
c0102096:	8d 76 00             	lea    0x0(%esi),%esi
c0102099:	8d bc 27 00 00 00 00 	lea    0x0(%edi,%eiz,1),%edi
c01020a0:	85 c0                	test   %eax,%eax
c01020a2:	74 11                	je     c01020b5 <init_bitmap+0x55>
c01020a4:	89 f5                	mov    %esi,%ebp
c01020a6:	83 e8 01             	sub    $0x1,%eax
c01020a9:	d3 e5                	shl    %cl,%ebp
c01020ab:	83 c1 01             	add    $0x1,%ecx
c01020ae:	09 ea                	or     %ebp,%edx
c01020b0:	83 f9 1f             	cmp    $0x1f,%ecx
c01020b3:	76 eb                	jbe    c01020a0 <init_bitmap+0x40>
c01020b5:	09 17                	or     %edx,(%edi)
c01020b7:	83 c7 04             	add    $0x4,%edi
c01020ba:	85 c0                	test   %eax,%eax
c01020bc:	75 d2                	jne    c0102090 <init_bitmap+0x30>
c01020be:	b9 f4 e0 12 00       	mov    $0x12e0f4,%ecx
c01020c3:	8b 3c 24             	mov    (%esp),%edi
c01020c6:	be 01 00 00 00       	mov    $0x1,%esi
c01020cb:	89 c8                	mov    %ecx,%eax
c01020cd:	c1 e8 0c             	shr    $0xc,%eax
c01020d0:	8d 50 01             	lea    0x1(%eax),%edx
c01020d3:	29 f8                	sub    %edi,%eax
c01020d5:	29 fa                	sub    %edi,%edx
c01020d7:	81 e1 ff 0f 00 00    	and    $0xfff,%ecx
c01020dd:	89 f9                	mov    %edi,%ecx
c01020df:	0f 45 c2             	cmovne %edx,%eax
c01020e2:	ba 00 00 10 00       	mov    $0x100000,%edx
c01020e7:	83 e1 1f             	and    $0x1f,%ecx
c01020ea:	c1 ea 11             	shr    $0x11,%edx
c01020ed:	85 c0                	test   %eax,%eax
c01020ef:	8d 3c 95 00 90 10 c0 	lea    -0x3fef7000(,%edx,4),%edi
c01020f6:	74 38                	je     c0102130 <init_bitmap+0xd0>
c01020f8:	90                   	nop
c01020f9:	8d b4 26 00 00 00 00 	lea    0x0(%esi,%eiz,1),%esi
c0102100:	31 d2                	xor    %edx,%edx
c0102102:	eb 10                	jmp    c0102114 <init_bitmap+0xb4>
c0102104:	8d b6 00 00 00 00    	lea    0x0(%esi),%esi
c010210a:	8d bf 00 00 00 00    	lea    0x0(%edi),%edi
c0102110:	85 c0                	test   %eax,%eax
c0102112:	74 11                	je     c0102125 <init_bitmap+0xc5>
c0102114:	89 f5                	mov    %esi,%ebp
c0102116:	83 e8 01             	sub    $0x1,%eax
c0102119:	d3 e5                	shl    %cl,%ebp
c010211b:	83 c1 01             	add    $0x1,%ecx
c010211e:	09 ea                	or     %ebp,%edx
c0102120:	83 f9 1f             	cmp    $0x1f,%ecx
c0102123:	76 eb                	jbe    c0102110 <init_bitmap+0xb0>
c0102125:	09 17                	or     %edx,(%edi)
c0102127:	31 c9                	xor    %ecx,%ecx
c0102129:	83 c7 04             	add    $0x4,%edi
c010212c:	85 c0                	test   %eax,%eax
c010212e:	75 d0                	jne    c0102100 <init_bitmap+0xa0>
c0102130:	8d 53 78             	lea    0x78(%ebx),%edx
c0102133:	89 d9                	mov    %ebx,%ecx
c0102135:	c1 e9 0c             	shr    $0xc,%ecx
c0102138:	89 d0                	mov    %edx,%eax
c010213a:	c1 e8 0c             	shr    $0xc,%eax
c010213d:	29 c8                	sub    %ecx,%eax
c010213f:	81 e2 ff 0f 00 00    	and    $0xfff,%edx
c0102145:	0f 95 c2             	setne  %dl
c0102148:	31 ff                	xor    %edi,%edi
c010214a:	0f b6 d2             	movzbl %dl,%edx
c010214d:	01 d0                	add    %edx,%eax
c010214f:	50                   	push   %eax
c0102150:	8d 83 00 00 00 40    	lea    0x40000000(%ebx),%eax
c0102156:	50                   	push   %eax
c0102157:	e8 04 fd ff ff       	call   c0101e60 <mark_used>
c010215c:	8b 4b 14             	mov    0x14(%ebx),%ecx
c010215f:	58                   	pop    %eax
c0102160:	8b 43 18             	mov    0x18(%ebx),%eax
c0102163:	85 c9                	test   %ecx,%ecx
c0102165:	5a                   	pop    %edx
c0102166:	8d 70 04             	lea    0x4(%eax),%esi
c0102169:	74 38                	je     c01021a3 <init_bitmap+0x143>
c010216b:	90                   	nop
c010216c:	8d 74 26 00          	lea    0x0(%esi,%eiz,1),%esi
c0102170:	8b 0e                	mov    (%esi),%ecx
c0102172:	8b 56 fc             	mov    -0x4(%esi),%edx
c0102175:	89 c8                	mov    %ecx,%eax
c0102177:	89 d5                	mov    %edx,%ebp
c0102179:	c1 ed 0c             	shr    $0xc,%ebp
c010217c:	c1 e8 0c             	shr    $0xc,%eax
c010217f:	29 e8                	sub    %ebp,%eax
c0102181:	81 e1 ff 0f 00 00    	and    $0xfff,%ecx
c0102187:	0f 95 c1             	setne  %cl
c010218a:	83 c7 01             	add    $0x1,%edi
c010218d:	83 c6 10             	add    $0x10,%esi
c0102190:	0f b6 c9             	movzbl %cl,%ecx
c0102193:	01 c8                	add    %ecx,%eax
c0102195:	50                   	push   %eax
c0102196:	52                   	push   %edx
c0102197:	e8 c4 fc ff ff       	call   c0101e60 <mark_used>
c010219c:	39 7b 14             	cmp    %edi,0x14(%ebx)
c010219f:	59                   	pop    %ecx
c01021a0:	5d                   	pop    %ebp
c01021a1:	77 cd                	ja     c0102170 <init_bitmap+0x110>
c01021a3:	f6 03 40             	testb  $0x40,(%ebx)
c01021a6:	74 6c                	je     c0102214 <init_bitmap+0x1b4>
c01021a8:	8b 43 30             	mov    0x30(%ebx),%eax
c01021ab:	8b 73 2c             	mov    0x2c(%ebx),%esi
c01021ae:	bf ff ff 0f 00       	mov    $0xfffff,%edi
c01021b3:	01 c6                	add    %eax,%esi
c01021b5:	8d 58 18             	lea    0x18(%eax),%ebx
c01021b8:	eb 33                	jmp    c01021ed <init_bitmap+0x18d>
c01021ba:	8d b6 00 00 00 00    	lea    0x0(%esi),%esi
c01021c0:	83 7b fc 01          	cmpl   $0x1,-0x4(%ebx)
c01021c4:	74 24                	je     c01021ea <init_bitmap+0x18a>
c01021c6:	89 ea                	mov    %ebp,%edx
c01021c8:	89 c1                	mov    %eax,%ecx
c01021ca:	c1 e9 0c             	shr    $0xc,%ecx
c01021cd:	c1 ea 0c             	shr    $0xc,%edx
c01021d0:	29 ca                	sub    %ecx,%edx
c01021d2:	89 d1                	mov    %edx,%ecx
c01021d4:	31 d2                	xor    %edx,%edx
c01021d6:	81 e5 ff 0f 00 00    	and    $0xfff,%ebp
c01021dc:	0f 95 c2             	setne  %dl
c01021df:	01 ca                	add    %ecx,%edx
c01021e1:	52                   	push   %edx
c01021e2:	50                   	push   %eax
c01021e3:	e8 78 fc ff ff       	call   c0101e60 <mark_used>
c01021e8:	58                   	pop    %eax
c01021e9:	5a                   	pop    %edx
c01021ea:	83 c3 18             	add    $0x18,%ebx
c01021ed:	8d 43 e8             	lea    -0x18(%ebx),%eax
c01021f0:	39 f0                	cmp    %esi,%eax
c01021f2:	73 20                	jae    c0102214 <init_bitmap+0x1b4>
c01021f4:	8b 43 ec             	mov    -0x14(%ebx),%eax
c01021f7:	89 c5                	mov    %eax,%ebp
c01021f9:	03 6b f4             	add    -0xc(%ebx),%ebp
c01021fc:	75 c2                	jne    c01021c0 <init_bitmap+0x160>
c01021fe:	83 7b fc 01          	cmpl   $0x1,-0x4(%ebx)
c0102202:	74 e6                	je     c01021ea <init_bitmap+0x18a>
c0102204:	89 c2                	mov    %eax,%edx
c0102206:	89 f9                	mov    %edi,%ecx
c0102208:	c1 ea 0c             	shr    $0xc,%edx
c010220b:	29 d1                	sub    %edx,%ecx
c010220d:	ba 01 00 00 00       	mov    $0x1,%edx
c0102212:	eb cb                	jmp    c01021df <init_bitmap+0x17f>
c0102214:	83 c4 04             	add    $0x4,%esp
c0102217:	5b                   	pop    %ebx
c0102218:	5e                   	pop    %esi
c0102219:	5f                   	pop    %edi
c010221a:	5d                   	pop    %ebp
c010221b:	c3                   	ret    
c010221c:	66 90                	xchg   %ax,%ax
c010221e:	66 90                	xchg   %ax,%ax

c0102220 <alloc_page>:
c0102220:	a1 d8 e0 12 c0       	mov    0xc012e0d8,%eax
c0102225:	57                   	push   %edi
c0102226:	56                   	push   %esi
c0102227:	53                   	push   %ebx
c0102228:	8b 5c 24 10          	mov    0x10(%esp),%ebx
c010222c:	85 c0                	test   %eax,%eax
c010222e:	75 14                	jne    c0102244 <alloc_page+0x24>
c0102230:	b8 f4 e0 12 c0       	mov    $0xc012e0f4,%eax
c0102235:	25 00 f0 ff ff       	and    $0xfffff000,%eax
c010223a:	05 00 20 00 00       	add    $0x2000,%eax
c010223f:	a3 d8 e0 12 c0       	mov    %eax,0xc012e0d8
c0102244:	31 f6                	xor    %esi,%esi
c0102246:	85 db                	test   %ebx,%ebx
c0102248:	89 c7                	mov    %eax,%edi
c010224a:	74 28                	je     c0102274 <alloc_page+0x54>
c010224c:	8d 74 26 00          	lea    0x0(%esi,%eiz,1),%esi
c0102250:	83 ec 08             	sub    $0x8,%esp
c0102253:	83 c6 01             	add    $0x1,%esi
c0102256:	6a 03                	push   $0x3
c0102258:	50                   	push   %eax
c0102259:	e8 02 fd ff ff       	call   c0101f60 <map_virtual_address>
c010225e:	a1 d8 e0 12 c0       	mov    0xc012e0d8,%eax
c0102263:	83 c4 10             	add    $0x10,%esp
c0102266:	05 00 10 00 00       	add    $0x1000,%eax
c010226b:	39 f3                	cmp    %esi,%ebx
c010226d:	a3 d8 e0 12 c0       	mov    %eax,0xc012e0d8
c0102272:	75 dc                	jne    c0102250 <alloc_page+0x30>
c0102274:	89 f8                	mov    %edi,%eax
c0102276:	5b                   	pop    %ebx
c0102277:	5e                   	pop    %esi
c0102278:	5f                   	pop    %edi
c0102279:	c3                   	ret    
c010227a:	8d b6 00 00 00 00    	lea    0x0(%esi),%esi

c0102280 <free_page>:
c0102280:	57                   	push   %edi
c0102281:	56                   	push   %esi
c0102282:	53                   	push   %ebx
c0102283:	8b 7c 24 14          	mov    0x14(%esp),%edi
c0102287:	31 db                	xor    %ebx,%ebx
c0102289:	8b 74 24 10          	mov    0x10(%esp),%esi
c010228d:	85 ff                	test   %edi,%edi
c010228f:	74 28                	je     c01022b9 <free_page+0x39>
c0102291:	eb 0d                	jmp    c01022a0 <free_page+0x20>
c0102293:	90                   	nop
c0102294:	90                   	nop
c0102295:	90                   	nop
c0102296:	90                   	nop
c0102297:	90                   	nop
c0102298:	90                   	nop
c0102299:	90                   	nop
c010229a:	90                   	nop
c010229b:	90                   	nop
c010229c:	90                   	nop
c010229d:	90                   	nop
c010229e:	90                   	nop
c010229f:	90                   	nop
c01022a0:	83 ec 0c             	sub    $0xc,%esp
c01022a3:	83 c3 01             	add    $0x1,%ebx
c01022a6:	56                   	push   %esi
c01022a7:	81 c6 00 10 00 00    	add    $0x1000,%esi
c01022ad:	e8 de fc ff ff       	call   c0101f90 <unmap_virtual_address>
c01022b2:	83 c4 10             	add    $0x10,%esp
c01022b5:	39 df                	cmp    %ebx,%edi
c01022b7:	75 e7                	jne    c01022a0 <free_page+0x20>
c01022b9:	c1 e7 0c             	shl    $0xc,%edi
c01022bc:	29 3d d8 e0 12 c0    	sub    %edi,0xc012e0d8
c01022c2:	5b                   	pop    %ebx
c01022c3:	5e                   	pop    %esi
c01022c4:	5f                   	pop    %edi
c01022c5:	c3                   	ret    
c01022c6:	66 90                	xchg   %ax,%ax
c01022c8:	66 90                	xchg   %ax,%ax
c01022ca:	66 90                	xchg   %ax,%ax
c01022cc:	66 90                	xchg   %ax,%ax
c01022ce:	66 90                	xchg   %ax,%ax

c01022d0 <load_module>:
c01022d0:	55                   	push   %ebp
c01022d1:	57                   	push   %edi
c01022d2:	56                   	push   %esi
c01022d3:	53                   	push   %ebx
c01022d4:	83 ec 24             	sub    $0x24,%esp
c01022d7:	68 04 10 00 00       	push   $0x1004
c01022dc:	6a 01                	push   $0x1
c01022de:	e8 0d 1f 00 00       	call   c01041f0 <calloc>
c01022e3:	89 c6                	mov    %eax,%esi
c01022e5:	c7 04 24 01 00 00 00 	movl   $0x1,(%esp)
c01022ec:	e8 bf 1b 00 00       	call   c0103eb0 <malloc_pages>
c01022f1:	89 06                	mov    %eax,(%esi)
c01022f3:	58                   	pop    %eax
c01022f4:	5a                   	pop    %edx
c01022f5:	68 04 10 00 00       	push   $0x1004
c01022fa:	6a 01                	push   $0x1
c01022fc:	e8 ef 1e 00 00       	call   c01041f0 <calloc>
c0102301:	89 c3                	mov    %eax,%ebx
c0102303:	89 46 04             	mov    %eax,0x4(%esi)
c0102306:	c7 04 24 01 00 00 00 	movl   $0x1,(%esp)
c010230d:	e8 9e 1b 00 00       	call   c0103eb0 <malloc_pages>
c0102312:	89 03                	mov    %eax,(%ebx)
c0102314:	59                   	pop    %ecx
c0102315:	5b                   	pop    %ebx
c0102316:	68 04 10 00 00       	push   $0x1004
c010231b:	6a 01                	push   $0x1
c010231d:	e8 ce 1e 00 00       	call   c01041f0 <calloc>
c0102322:	89 c3                	mov    %eax,%ebx
c0102324:	89 86 00 0c 00 00    	mov    %eax,0xc00(%esi)
c010232a:	c7 04 24 01 00 00 00 	movl   $0x1,(%esp)
c0102331:	e8 7a 1b 00 00       	call   c0103eb0 <malloc_pages>
c0102336:	89 03                	mov    %eax,(%ebx)
c0102338:	5f                   	pop    %edi
c0102339:	5d                   	pop    %ebp
c010233a:	68 04 10 00 00       	push   $0x1004
c010233f:	6a 01                	push   $0x1
c0102341:	e8 aa 1e 00 00       	call   c01041f0 <calloc>
c0102346:	89 86 fc 0f 00 00    	mov    %eax,0xffc(%esi)
c010234c:	89 c3                	mov    %eax,%ebx
c010234e:	c7 04 24 01 00 00 00 	movl   $0x1,(%esp)
c0102355:	e8 56 1b 00 00       	call   c0103eb0 <malloc_pages>
c010235a:	83 c4 0c             	add    $0xc,%esp
c010235d:	89 03                	mov    %eax,(%ebx)
c010235f:	68 00 10 00 00       	push   $0x1000
c0102364:	6a 00                	push   $0x0
c0102366:	ff 36                	pushl  (%esi)
c0102368:	e8 f3 1a 00 00       	call   c0103e60 <memset>
c010236d:	8b 46 04             	mov    0x4(%esi),%eax
c0102370:	83 c4 0c             	add    $0xc,%esp
c0102373:	68 00 10 00 00       	push   $0x1000
c0102378:	6a 00                	push   $0x0
c010237a:	ff 30                	pushl  (%eax)
c010237c:	e8 df 1a 00 00       	call   c0103e60 <memset>
c0102381:	8b 86 00 0c 00 00    	mov    0xc00(%esi),%eax
c0102387:	83 c4 0c             	add    $0xc,%esp
c010238a:	68 00 10 00 00       	push   $0x1000
c010238f:	6a 00                	push   $0x0
c0102391:	ff 30                	pushl  (%eax)
c0102393:	e8 c8 1a 00 00       	call   c0103e60 <memset>
c0102398:	8b 86 fc 0f 00 00    	mov    0xffc(%esi),%eax
c010239e:	83 c4 0c             	add    $0xc,%esp
c01023a1:	68 00 10 00 00       	push   $0x1000
c01023a6:	6a 00                	push   $0x0
c01023a8:	ff 30                	pushl  (%eax)
c01023aa:	e8 b1 1a 00 00       	call   c0103e60 <memset>
c01023af:	8b 1e                	mov    (%esi),%ebx
c01023b1:	89 1c 24             	mov    %ebx,(%esp)
c01023b4:	e8 67 fc ff ff       	call   c0102020 <get_physical_address>
c01023b9:	83 c8 03             	or     $0x3,%eax
c01023bc:	89 83 fc 0f 00 00    	mov    %eax,0xffc(%ebx)
c01023c2:	8b 1e                	mov    (%esi),%ebx
c01023c4:	b8 00 80 10 00       	mov    $0x108000,%eax
c01023c9:	83 c8 03             	or     $0x3,%eax
c01023cc:	89 83 00 0c 00 00    	mov    %eax,0xc00(%ebx)
c01023d2:	58                   	pop    %eax
c01023d3:	8b 46 04             	mov    0x4(%esi),%eax
c01023d6:	ff 30                	pushl  (%eax)
c01023d8:	e8 43 fc ff ff       	call   c0102020 <get_physical_address>
c01023dd:	83 c8 07             	or     $0x7,%eax
c01023e0:	89 03                	mov    %eax,(%ebx)
c01023e2:	8b 1e                	mov    (%esi),%ebx
c01023e4:	58                   	pop    %eax
c01023e5:	8b 86 00 0c 00 00    	mov    0xc00(%esi),%eax
c01023eb:	ff 30                	pushl  (%eax)
c01023ed:	e8 2e fc ff ff       	call   c0102020 <get_physical_address>
c01023f2:	83 c8 07             	or     $0x7,%eax
c01023f5:	89 83 fc 0b 00 00    	mov    %eax,0xbfc(%ebx)
c01023fb:	8b 1e                	mov    (%esi),%ebx
c01023fd:	58                   	pop    %eax
c01023fe:	8b 86 fc 0f 00 00    	mov    0xffc(%esi),%eax
c0102404:	ff 30                	pushl  (%eax)
c0102406:	e8 15 fc ff ff       	call   c0102020 <get_physical_address>
c010240b:	83 c8 03             	or     $0x3,%eax
c010240e:	89 83 f8 0f 00 00    	mov    %eax,0xff8(%ebx)
c0102414:	8b 9e 00 0c 00 00    	mov    0xc00(%esi),%ebx
c010241a:	c7 04 24 01 00 00 00 	movl   $0x1,(%esp)
c0102421:	e8 8a 1a 00 00       	call   c0103eb0 <malloc_pages>
c0102426:	89 83 00 10 00 00    	mov    %eax,0x1000(%ebx)
c010242c:	8b 86 00 0c 00 00    	mov    0xc00(%esi),%eax
c0102432:	5a                   	pop    %edx
c0102433:	8b 18                	mov    (%eax),%ebx
c0102435:	ff b0 00 10 00 00    	pushl  0x1000(%eax)
c010243b:	e8 e0 fb ff ff       	call   c0102020 <get_physical_address>
c0102440:	83 c8 07             	or     $0x7,%eax
c0102443:	89 83 fc 0f 00 00    	mov    %eax,0xffc(%ebx)
c0102449:	8b 9e fc 0f 00 00    	mov    0xffc(%esi),%ebx
c010244f:	c7 04 24 01 00 00 00 	movl   $0x1,(%esp)
c0102456:	e8 55 1a 00 00       	call   c0103eb0 <malloc_pages>
c010245b:	89 83 00 10 00 00    	mov    %eax,0x1000(%ebx)
c0102461:	8b 86 fc 0f 00 00    	mov    0xffc(%esi),%eax
c0102467:	59                   	pop    %ecx
c0102468:	8b 18                	mov    (%eax),%ebx
c010246a:	ff b0 00 10 00 00    	pushl  0x1000(%eax)
c0102470:	e8 ab fb ff ff       	call   c0102020 <get_physical_address>
c0102475:	83 c8 03             	or     $0x3,%eax
c0102478:	89 83 fc 0f 00 00    	mov    %eax,0xffc(%ebx)
c010247e:	8b 44 24 40          	mov    0x40(%esp),%eax
c0102482:	8b 50 04             	mov    0x4(%eax),%edx
c0102485:	8b 00                	mov    (%eax),%eax
c0102487:	89 d5                	mov    %edx,%ebp
c0102489:	89 44 24 14          	mov    %eax,0x14(%esp)
c010248d:	c1 ed 0c             	shr    $0xc,%ebp
c0102490:	c1 e8 0c             	shr    $0xc,%eax
c0102493:	29 c5                	sub    %eax,%ebp
c0102495:	31 c0                	xor    %eax,%eax
c0102497:	81 e2 ff 0f 00 00    	and    $0xfff,%edx
c010249d:	0f 95 c0             	setne  %al
c01024a0:	01 c5                	add    %eax,%ebp
c01024a2:	89 2c 24             	mov    %ebp,(%esp)
c01024a5:	e8 06 1a 00 00       	call   c0103eb0 <malloc_pages>
c01024aa:	89 44 24 18          	mov    %eax,0x18(%esp)
c01024ae:	83 c4 10             	add    $0x10,%esp
c01024b1:	85 ed                	test   %ebp,%ebp
c01024b3:	0f 84 d2 00 00 00    	je     c010258b <load_module+0x2bb>
c01024b9:	89 74 24 0c          	mov    %esi,0xc(%esp)
c01024bd:	8b 74 24 30          	mov    0x30(%esp),%esi
c01024c1:	89 c7                	mov    %eax,%edi
c01024c3:	31 db                	xor    %ebx,%ebx
c01024c5:	8d 74 26 00          	lea    0x0(%esi,%eiz,1),%esi
c01024c9:	8d bc 27 00 00 00 00 	lea    0x0(%edi,%eiz,1),%edi
c01024d0:	83 ec 0c             	sub    $0xc,%esp
c01024d3:	57                   	push   %edi
c01024d4:	e8 47 fb ff ff       	call   c0102020 <get_physical_address>
c01024d9:	89 04 24             	mov    %eax,(%esp)
c01024dc:	e8 2f f9 ff ff       	call   c0101e10 <free_physical_page>
c01024e1:	83 c4 0c             	add    $0xc,%esp
c01024e4:	89 d8                	mov    %ebx,%eax
c01024e6:	83 c3 01             	add    $0x1,%ebx
c01024e9:	6a 03                	push   $0x3
c01024eb:	c1 e0 0c             	shl    $0xc,%eax
c01024ee:	03 06                	add    (%esi),%eax
c01024f0:	25 00 f0 ff ff       	and    $0xfffff000,%eax
c01024f5:	50                   	push   %eax
c01024f6:	57                   	push   %edi
c01024f7:	81 c7 00 10 00 00    	add    $0x1000,%edi
c01024fd:	e8 ce f9 ff ff       	call   c0101ed0 <map_page>
c0102502:	83 c4 10             	add    $0x10,%esp
c0102505:	39 dd                	cmp    %ebx,%ebp
c0102507:	75 c7                	jne    c01024d0 <load_module+0x200>
c0102509:	89 5c 24 04          	mov    %ebx,0x4(%esp)
c010250d:	8b 74 24 0c          	mov    0xc(%esp),%esi
c0102511:	83 ec 0c             	sub    $0xc,%esp
c0102514:	ff 74 24 10          	pushl  0x10(%esp)
c0102518:	31 ff                	xor    %edi,%edi
c010251a:	e8 91 19 00 00       	call   c0103eb0 <malloc_pages>
c010251f:	89 44 24 1c          	mov    %eax,0x1c(%esp)
c0102523:	89 c5                	mov    %eax,%ebp
c0102525:	83 c4 10             	add    $0x10,%esp
c0102528:	90                   	nop
c0102529:	8d b4 26 00 00 00 00 	lea    0x0(%esi,%eiz,1),%esi
c0102530:	8b 46 04             	mov    0x4(%esi),%eax
c0102533:	83 ec 0c             	sub    $0xc,%esp
c0102536:	89 6c b8 04          	mov    %ebp,0x4(%eax,%edi,4)
c010253a:	8b 18                	mov    (%eax),%ebx
c010253c:	55                   	push   %ebp
c010253d:	81 c5 00 10 00 00    	add    $0x1000,%ebp
c0102543:	e8 d8 fa ff ff       	call   c0102020 <get_physical_address>
c0102548:	83 c4 10             	add    $0x10,%esp
c010254b:	83 c8 07             	or     $0x7,%eax
c010254e:	89 04 bb             	mov    %eax,(%ebx,%edi,4)
c0102551:	83 c7 01             	add    $0x1,%edi
c0102554:	39 7c 24 04          	cmp    %edi,0x4(%esp)
c0102558:	75 d6                	jne    c0102530 <load_module+0x260>
c010255a:	83 ec 04             	sub    $0x4,%esp
c010255d:	8b 4c 24 34          	mov    0x34(%esp),%ecx
c0102561:	8b 44 24 34          	mov    0x34(%esp),%eax
c0102565:	8b 40 04             	mov    0x4(%eax),%eax
c0102568:	2b 01                	sub    (%ecx),%eax
c010256a:	50                   	push   %eax
c010256b:	8b 5c 24 10          	mov    0x10(%esp),%ebx
c010256f:	53                   	push   %ebx
c0102570:	ff 74 24 18          	pushl  0x18(%esp)
c0102574:	e8 a7 18 00 00       	call   c0103e20 <memcpy>
c0102579:	89 1c 24             	mov    %ebx,(%esp)
c010257c:	e8 af 1c 00 00       	call   c0104230 <free>
c0102581:	83 c4 2c             	add    $0x2c,%esp
c0102584:	89 f0                	mov    %esi,%eax
c0102586:	5b                   	pop    %ebx
c0102587:	5e                   	pop    %esi
c0102588:	5f                   	pop    %edi
c0102589:	5d                   	pop    %ebp
c010258a:	c3                   	ret    
c010258b:	83 ec 0c             	sub    $0xc,%esp
c010258e:	6a 00                	push   $0x0
c0102590:	e8 1b 19 00 00       	call   c0103eb0 <malloc_pages>
c0102595:	89 44 24 1c          	mov    %eax,0x1c(%esp)
c0102599:	83 c4 10             	add    $0x10,%esp
c010259c:	eb bc                	jmp    c010255a <load_module+0x28a>
c010259e:	66 90                	xchg   %ax,%ax

c01025a0 <add_process>:
c01025a0:	56                   	push   %esi
c01025a1:	53                   	push   %ebx
c01025a2:	83 ec 04             	sub    $0x4,%esp
c01025a5:	a1 e4 e0 12 c0       	mov    0xc012e0e4,%eax
c01025aa:	85 c0                	test   %eax,%eax
c01025ac:	74 72                	je     c0102620 <add_process+0x80>
c01025ae:	83 ec 0c             	sub    $0xc,%esp
c01025b1:	6a 44                	push   $0x44
c01025b3:	e8 a8 1a 00 00       	call   c0104060 <malloc>
c01025b8:	8b 1d e0 e0 12 c0    	mov    0xc012e0e0,%ebx
c01025be:	8b 15 e4 e0 12 c0    	mov    0xc012e0e4,%edx
c01025c4:	83 c4 10             	add    $0x10,%esp
c01025c7:	8b 4c 24 10          	mov    0x10(%esp),%ecx
c01025cb:	c6 40 34 00          	movb   $0x0,0x34(%eax)
c01025cf:	c7 40 2c 23 00 00 00 	movl   $0x23,0x2c(%eax)
c01025d6:	c7 40 28 fc ff ff bf 	movl   $0xbffffffc,0x28(%eax)
c01025dd:	c7 40 24 10 02 00 00 	movl   $0x210,0x24(%eax)
c01025e4:	c7 40 20 1b 00 00 00 	movl   $0x1b,0x20(%eax)
c01025eb:	89 48 30             	mov    %ecx,0x30(%eax)
c01025ee:	8b 0d b4 90 12 c0    	mov    0xc01290b4,%ecx
c01025f4:	c7 40 1c 00 00 00 00 	movl   $0x0,0x1c(%eax)
c01025fb:	89 58 40             	mov    %ebx,0x40(%eax)
c01025fe:	89 50 3c             	mov    %edx,0x3c(%eax)
c0102601:	a3 e0 e0 12 c0       	mov    %eax,0xc012e0e0
c0102606:	8d 71 01             	lea    0x1(%ecx),%esi
c0102609:	89 48 38             	mov    %ecx,0x38(%eax)
c010260c:	89 42 40             	mov    %eax,0x40(%edx)
c010260f:	89 43 3c             	mov    %eax,0x3c(%ebx)
c0102612:	89 35 b4 90 12 c0    	mov    %esi,0xc01290b4
c0102618:	83 c4 04             	add    $0x4,%esp
c010261b:	5b                   	pop    %ebx
c010261c:	5e                   	pop    %esi
c010261d:	c3                   	ret    
c010261e:	66 90                	xchg   %ax,%ax
c0102620:	83 ec 0c             	sub    $0xc,%esp
c0102623:	6a 44                	push   $0x44
c0102625:	e8 36 1a 00 00       	call   c0104060 <malloc>
c010262a:	83 c4 10             	add    $0x10,%esp
c010262d:	a3 e4 e0 12 c0       	mov    %eax,0xc012e0e4
c0102632:	c7 40 40 00 00 00 00 	movl   $0x0,0x40(%eax)
c0102639:	89 c2                	mov    %eax,%edx
c010263b:	89 c3                	mov    %eax,%ebx
c010263d:	eb 88                	jmp    c01025c7 <add_process+0x27>
c010263f:	90                   	nop

c0102640 <run_process>:
c0102640:	53                   	push   %ebx
c0102641:	83 ec 24             	sub    $0x24,%esp
c0102644:	8b 5c 24 2c          	mov    0x2c(%esp),%ebx
c0102648:	8b 43 30             	mov    0x30(%ebx),%eax
c010264b:	89 1d dc e0 12 c0    	mov    %ebx,0xc012e0dc
c0102651:	ff 30                	pushl  (%eax)
c0102653:	e8 c8 f9 ff ff       	call   c0102020 <get_physical_address>
c0102658:	89 44 24 1c          	mov    %eax,0x1c(%esp)
c010265c:	8b 54 24 1c          	mov    0x1c(%esp),%edx
c0102660:	0f 22 da             	mov    %edx,%cr3
c0102663:	ff 73 2c             	pushl  0x2c(%ebx)
c0102666:	ff 73 28             	pushl  0x28(%ebx)
c0102669:	ff 73 24             	pushl  0x24(%ebx)
c010266c:	ff 73 20             	pushl  0x20(%ebx)
c010266f:	ff 73 1c             	pushl  0x1c(%ebx)
c0102672:	ff 73 18             	pushl  0x18(%ebx)
c0102675:	ff 73 14             	pushl  0x14(%ebx)
c0102678:	ff 73 10             	pushl  0x10(%ebx)
c010267b:	ff 73 0c             	pushl  0xc(%ebx)
c010267e:	ff 73 08             	pushl  0x8(%ebx)
c0102681:	ff 73 04             	pushl  0x4(%ebx)
c0102684:	ff 33                	pushl  (%ebx)
c0102686:	e8 a0 ec ff ff       	call   c010132b <sys_return>
c010268b:	83 c4 58             	add    $0x58,%esp
c010268e:	5b                   	pop    %ebx
c010268f:	c3                   	ret    

c0102690 <yield>:
c0102690:	a1 dc e0 12 c0       	mov    0xc012e0dc,%eax
c0102695:	8b 54 24 04          	mov    0x4(%esp),%edx
c0102699:	89 10                	mov    %edx,(%eax)
c010269b:	8b 54 24 08          	mov    0x8(%esp),%edx
c010269f:	89 50 04             	mov    %edx,0x4(%eax)
c01026a2:	8b 54 24 0c          	mov    0xc(%esp),%edx
c01026a6:	89 50 08             	mov    %edx,0x8(%eax)
c01026a9:	8b 54 24 10          	mov    0x10(%esp),%edx
c01026ad:	89 50 0c             	mov    %edx,0xc(%eax)
c01026b0:	8b 54 24 14          	mov    0x14(%esp),%edx
c01026b4:	89 50 10             	mov    %edx,0x10(%eax)
c01026b7:	8b 54 24 18          	mov    0x18(%esp),%edx
c01026bb:	89 50 14             	mov    %edx,0x14(%eax)
c01026be:	8b 54 24 1c          	mov    0x1c(%esp),%edx
c01026c2:	89 50 18             	mov    %edx,0x18(%eax)
c01026c5:	8b 54 24 20          	mov    0x20(%esp),%edx
c01026c9:	89 50 1c             	mov    %edx,0x1c(%eax)
c01026cc:	8b 54 24 24          	mov    0x24(%esp),%edx
c01026d0:	89 50 20             	mov    %edx,0x20(%eax)
c01026d3:	8b 54 24 28          	mov    0x28(%esp),%edx
c01026d7:	89 50 24             	mov    %edx,0x24(%eax)
c01026da:	8b 54 24 2c          	mov    0x2c(%esp),%edx
c01026de:	89 50 28             	mov    %edx,0x28(%eax)
c01026e1:	8b 54 24 30          	mov    0x30(%esp),%edx
c01026e5:	89 50 2c             	mov    %edx,0x2c(%eax)
c01026e8:	8b 40 3c             	mov    0x3c(%eax),%eax
c01026eb:	89 44 24 04          	mov    %eax,0x4(%esp)
c01026ef:	e9 4c ff ff ff       	jmp    c0102640 <run_process>
c01026f4:	8d b6 00 00 00 00    	lea    0x0(%esi),%esi
c01026fa:	8d bf 00 00 00 00    	lea    0x0(%edi),%edi

c0102700 <exit>:
c0102700:	a1 dc e0 12 c0       	mov    0xc012e0dc,%eax
c0102705:	3b 05 e4 e0 12 c0    	cmp    0xc012e0e4,%eax
c010270b:	0f 84 04 01 00 00    	je     c0102815 <exit+0x115>
c0102711:	3b 05 e0 e0 12 c0    	cmp    0xc012e0e0,%eax
c0102717:	0f 84 e7 00 00 00    	je     c0102804 <exit+0x104>
c010271d:	8b 48 3c             	mov    0x3c(%eax),%ecx
c0102720:	8b 50 40             	mov    0x40(%eax),%edx
c0102723:	57                   	push   %edi
c0102724:	56                   	push   %esi
c0102725:	53                   	push   %ebx
c0102726:	83 ec 1c             	sub    $0x1c,%esp
c0102729:	89 4a 3c             	mov    %ecx,0x3c(%edx)
c010272c:	8b 78 3c             	mov    0x3c(%eax),%edi
c010272f:	8b 47 30             	mov    0x30(%edi),%eax
c0102732:	89 57 40             	mov    %edx,0x40(%edi)
c0102735:	ff 30                	pushl  (%eax)
c0102737:	e8 e4 f8 ff ff       	call   c0102020 <get_physical_address>
c010273c:	89 44 24 1c          	mov    %eax,0x1c(%esp)
c0102740:	8b 54 24 1c          	mov    0x1c(%esp),%edx
c0102744:	0f 22 da             	mov    %edx,%cr3
c0102747:	a1 dc e0 12 c0       	mov    0xc012e0dc,%eax
c010274c:	31 f6                	xor    %esi,%esi
c010274e:	5a                   	pop    %edx
c010274f:	8b 40 30             	mov    0x30(%eax),%eax
c0102752:	ff 30                	pushl  (%eax)
c0102754:	e8 d7 1a 00 00       	call   c0104230 <free>
c0102759:	a1 dc e0 12 c0       	mov    0xc012e0dc,%eax
c010275e:	83 c4 10             	add    $0x10,%esp
c0102761:	8b 50 30             	mov    0x30(%eax),%edx
c0102764:	8d b6 00 00 00 00    	lea    0x0(%esi),%esi
c010276a:	8d bf 00 00 00 00    	lea    0x0(%edi),%edi
c0102770:	8b 44 b2 04          	mov    0x4(%edx,%esi,4),%eax
c0102774:	85 c0                	test   %eax,%eax
c0102776:	74 5d                	je     c01027d5 <exit+0xd5>
c0102778:	83 ec 0c             	sub    $0xc,%esp
c010277b:	ff 30                	pushl  (%eax)
c010277d:	31 db                	xor    %ebx,%ebx
c010277f:	e8 ac 1a 00 00       	call   c0104230 <free>
c0102784:	83 c4 10             	add    $0x10,%esp
c0102787:	89 f6                	mov    %esi,%esi
c0102789:	8d bc 27 00 00 00 00 	lea    0x0(%edi,%eiz,1),%edi
c0102790:	a1 dc e0 12 c0       	mov    0xc012e0dc,%eax
c0102795:	83 ec 0c             	sub    $0xc,%esp
c0102798:	8b 40 30             	mov    0x30(%eax),%eax
c010279b:	8b 44 b0 04          	mov    0x4(%eax,%esi,4),%eax
c010279f:	ff 74 98 04          	pushl  0x4(%eax,%ebx,4)
c01027a3:	83 c3 01             	add    $0x1,%ebx
c01027a6:	e8 85 1a 00 00       	call   c0104230 <free>
c01027ab:	83 c4 10             	add    $0x10,%esp
c01027ae:	81 fb 00 04 00 00    	cmp    $0x400,%ebx
c01027b4:	75 da                	jne    c0102790 <exit+0x90>
c01027b6:	a1 dc e0 12 c0       	mov    0xc012e0dc,%eax
c01027bb:	83 ec 0c             	sub    $0xc,%esp
c01027be:	8b 40 30             	mov    0x30(%eax),%eax
c01027c1:	ff 74 b0 04          	pushl  0x4(%eax,%esi,4)
c01027c5:	e8 66 1a 00 00       	call   c0104230 <free>
c01027ca:	a1 dc e0 12 c0       	mov    0xc012e0dc,%eax
c01027cf:	83 c4 10             	add    $0x10,%esp
c01027d2:	8b 50 30             	mov    0x30(%eax),%edx
c01027d5:	83 c6 01             	add    $0x1,%esi
c01027d8:	81 fe 00 04 00 00    	cmp    $0x400,%esi
c01027de:	75 90                	jne    c0102770 <exit+0x70>
c01027e0:	83 ec 0c             	sub    $0xc,%esp
c01027e3:	52                   	push   %edx
c01027e4:	e8 47 1a 00 00       	call   c0104230 <free>
c01027e9:	58                   	pop    %eax
c01027ea:	ff 35 dc e0 12 c0    	pushl  0xc012e0dc
c01027f0:	e8 3b 1a 00 00       	call   c0104230 <free>
c01027f5:	89 3c 24             	mov    %edi,(%esp)
c01027f8:	e8 43 fe ff ff       	call   c0102640 <run_process>
c01027fd:	83 c4 20             	add    $0x20,%esp
c0102800:	5b                   	pop    %ebx
c0102801:	5e                   	pop    %esi
c0102802:	5f                   	pop    %edi
c0102803:	c3                   	ret    
c0102804:	8b 50 40             	mov    0x40(%eax),%edx
c0102807:	8b 48 3c             	mov    0x3c(%eax),%ecx
c010280a:	89 15 e0 e0 12 c0    	mov    %edx,0xc012e0e0
c0102810:	e9 0e ff ff ff       	jmp    c0102723 <exit+0x23>
c0102815:	3b 05 e0 e0 12 c0    	cmp    0xc012e0e0,%eax
c010281b:	74 11                	je     c010282e <exit+0x12e>
c010281d:	8b 48 3c             	mov    0x3c(%eax),%ecx
c0102820:	8b 50 40             	mov    0x40(%eax),%edx
c0102823:	89 0d e4 e0 12 c0    	mov    %ecx,0xc012e0e4
c0102829:	e9 f5 fe ff ff       	jmp    c0102723 <exit+0x23>
c010282e:	fb                   	sti    
c010282f:	eb fe                	jmp    c010282f <exit+0x12f>
c0102831:	eb 0d                	jmp    c0102840 <fork>
c0102833:	90                   	nop
c0102834:	90                   	nop
c0102835:	90                   	nop
c0102836:	90                   	nop
c0102837:	90                   	nop
c0102838:	90                   	nop
c0102839:	90                   	nop
c010283a:	90                   	nop
c010283b:	90                   	nop
c010283c:	90                   	nop
c010283d:	90                   	nop
c010283e:	90                   	nop
c010283f:	90                   	nop

c0102840 <fork>:
c0102840:	55                   	push   %ebp
c0102841:	57                   	push   %edi
c0102842:	56                   	push   %esi
c0102843:	53                   	push   %ebx
c0102844:	31 f6                	xor    %esi,%esi
c0102846:	83 ec 14             	sub    $0x14,%esp
c0102849:	68 04 10 00 00       	push   $0x1004
c010284e:	6a 01                	push   $0x1
c0102850:	e8 9b 19 00 00       	call   c01041f0 <calloc>
c0102855:	c7 04 24 01 00 00 00 	movl   $0x1,(%esp)
c010285c:	89 c7                	mov    %eax,%edi
c010285e:	e8 4d 16 00 00       	call   c0103eb0 <malloc_pages>
c0102863:	83 c4 0c             	add    $0xc,%esp
c0102866:	89 07                	mov    %eax,(%edi)
c0102868:	68 00 10 00 00       	push   $0x1000
c010286d:	6a 00                	push   $0x0
c010286f:	50                   	push   %eax
c0102870:	e8 eb 15 00 00       	call   c0103e60 <memset>
c0102875:	8b 0d dc e0 12 c0    	mov    0xc012e0dc,%ecx
c010287b:	83 c4 10             	add    $0x10,%esp
c010287e:	66 90                	xchg   %ax,%ax
c0102880:	8b 41 30             	mov    0x30(%ecx),%eax
c0102883:	8b 44 b0 04          	mov    0x4(%eax,%esi,4),%eax
c0102887:	85 c0                	test   %eax,%eax
c0102889:	0f 84 f5 00 00 00    	je     c0102984 <fork+0x144>
c010288f:	83 ec 08             	sub    $0x8,%esp
c0102892:	68 04 10 00 00       	push   $0x1004
c0102897:	6a 01                	push   $0x1
c0102899:	e8 52 19 00 00       	call   c01041f0 <calloc>
c010289e:	89 c3                	mov    %eax,%ebx
c01028a0:	89 44 b7 04          	mov    %eax,0x4(%edi,%esi,4)
c01028a4:	c7 04 24 01 00 00 00 	movl   $0x1,(%esp)
c01028ab:	e8 00 16 00 00       	call   c0103eb0 <malloc_pages>
c01028b0:	89 03                	mov    %eax,(%ebx)
c01028b2:	8b 44 b7 04          	mov    0x4(%edi,%esi,4),%eax
c01028b6:	83 c4 0c             	add    $0xc,%esp
c01028b9:	68 00 10 00 00       	push   $0x1000
c01028be:	6a 00                	push   $0x0
c01028c0:	31 db                	xor    %ebx,%ebx
c01028c2:	ff 30                	pushl  (%eax)
c01028c4:	e8 97 15 00 00       	call   c0103e60 <memset>
c01028c9:	8b 0d dc e0 12 c0    	mov    0xc012e0dc,%ecx
c01028cf:	83 c4 10             	add    $0x10,%esp
c01028d2:	8d b4 26 00 00 00 00 	lea    0x0(%esi,%eiz,1),%esi
c01028d9:	8d bc 27 00 00 00 00 	lea    0x0(%edi,%eiz,1),%edi
c01028e0:	8b 41 30             	mov    0x30(%ecx),%eax
c01028e3:	8b 44 b0 04          	mov    0x4(%eax,%esi,4),%eax
c01028e7:	8b 6c 98 04          	mov    0x4(%eax,%ebx,4),%ebp
c01028eb:	85 ed                	test   %ebp,%ebp
c01028ed:	74 63                	je     c0102952 <fork+0x112>
c01028ef:	8b 6c b7 04          	mov    0x4(%edi,%esi,4),%ebp
c01028f3:	83 ec 0c             	sub    $0xc,%esp
c01028f6:	6a 01                	push   $0x1
c01028f8:	e8 b3 15 00 00       	call   c0103eb0 <malloc_pages>
c01028fd:	89 44 9d 04          	mov    %eax,0x4(%ebp,%ebx,4)
c0102901:	a1 dc e0 12 c0       	mov    0xc012e0dc,%eax
c0102906:	83 c4 0c             	add    $0xc,%esp
c0102909:	68 00 10 00 00       	push   $0x1000
c010290e:	8b 40 30             	mov    0x30(%eax),%eax
c0102911:	8b 44 b0 04          	mov    0x4(%eax,%esi,4),%eax
c0102915:	ff 74 98 04          	pushl  0x4(%eax,%ebx,4)
c0102919:	8b 44 b7 04          	mov    0x4(%edi,%esi,4),%eax
c010291d:	ff 74 98 04          	pushl  0x4(%eax,%ebx,4)
c0102921:	e8 fa 14 00 00       	call   c0103e20 <memcpy>
c0102926:	8b 44 b7 04          	mov    0x4(%edi,%esi,4),%eax
c010292a:	5a                   	pop    %edx
c010292b:	8b 28                	mov    (%eax),%ebp
c010292d:	ff 74 98 04          	pushl  0x4(%eax,%ebx,4)
c0102931:	e8 ea f6 ff ff       	call   c0102020 <get_physical_address>
c0102936:	8b 0d dc e0 12 c0    	mov    0xc012e0dc,%ecx
c010293c:	83 c4 10             	add    $0x10,%esp
c010293f:	8b 51 30             	mov    0x30(%ecx),%edx
c0102942:	8b 54 b2 04          	mov    0x4(%edx,%esi,4),%edx
c0102946:	8b 12                	mov    (%edx),%edx
c0102948:	0f b6 14 9a          	movzbl (%edx,%ebx,4),%edx
c010294c:	09 d0                	or     %edx,%eax
c010294e:	89 44 9d 00          	mov    %eax,0x0(%ebp,%ebx,4)
c0102952:	83 c3 01             	add    $0x1,%ebx
c0102955:	81 fb 00 04 00 00    	cmp    $0x400,%ebx
c010295b:	75 83                	jne    c01028e0 <fork+0xa0>
c010295d:	8b 44 b7 04          	mov    0x4(%edi,%esi,4),%eax
c0102961:	8b 1f                	mov    (%edi),%ebx
c0102963:	83 ec 0c             	sub    $0xc,%esp
c0102966:	ff 30                	pushl  (%eax)
c0102968:	e8 b3 f6 ff ff       	call   c0102020 <get_physical_address>
c010296d:	8b 0d dc e0 12 c0    	mov    0xc012e0dc,%ecx
c0102973:	83 c4 10             	add    $0x10,%esp
c0102976:	8b 51 30             	mov    0x30(%ecx),%edx
c0102979:	8b 12                	mov    (%edx),%edx
c010297b:	0f b6 14 b2          	movzbl (%edx,%esi,4),%edx
c010297f:	09 d0                	or     %edx,%eax
c0102981:	89 04 b3             	mov    %eax,(%ebx,%esi,4)
c0102984:	83 c6 01             	add    $0x1,%esi
c0102987:	81 fe 00 04 00 00    	cmp    $0x400,%esi
c010298d:	0f 85 ed fe ff ff    	jne    c0102880 <fork+0x40>
c0102993:	8b 1f                	mov    (%edi),%ebx
c0102995:	83 ec 0c             	sub    $0xc,%esp
c0102998:	53                   	push   %ebx
c0102999:	e8 82 f6 ff ff       	call   c0102020 <get_physical_address>
c010299e:	8b 17                	mov    (%edi),%edx
c01029a0:	83 c8 03             	or     $0x3,%eax
c01029a3:	89 83 fc 0f 00 00    	mov    %eax,0xffc(%ebx)
c01029a9:	b8 00 80 10 00       	mov    $0x108000,%eax
c01029ae:	83 c8 03             	or     $0x3,%eax
c01029b1:	89 82 00 0c 00 00    	mov    %eax,0xc00(%edx)
c01029b7:	89 3c 24             	mov    %edi,(%esp)
c01029ba:	e8 e1 fb ff ff       	call   c01025a0 <add_process>
c01029bf:	83 c4 0c             	add    $0xc,%esp
c01029c2:	89 c3                	mov    %eax,%ebx
c01029c4:	6a 30                	push   $0x30
c01029c6:	8d 44 24 28          	lea    0x28(%esp),%eax
c01029ca:	50                   	push   %eax
c01029cb:	53                   	push   %ebx
c01029cc:	e8 4f 14 00 00       	call   c0103e20 <memcpy>
c01029d1:	8b 43 38             	mov    0x38(%ebx),%eax
c01029d4:	c7 43 10 00 00 00 00 	movl   $0x0,0x10(%ebx)
c01029db:	89 44 24 40          	mov    %eax,0x40(%esp)
c01029df:	ff 74 24 5c          	pushl  0x5c(%esp)
c01029e3:	ff 74 24 5c          	pushl  0x5c(%esp)
c01029e7:	ff 74 24 5c          	pushl  0x5c(%esp)
c01029eb:	ff 74 24 5c          	pushl  0x5c(%esp)
c01029ef:	ff 74 24 5c          	pushl  0x5c(%esp)
c01029f3:	ff 74 24 5c          	pushl  0x5c(%esp)
c01029f7:	ff 74 24 5c          	pushl  0x5c(%esp)
c01029fb:	50                   	push   %eax
c01029fc:	ff 74 24 5c          	pushl  0x5c(%esp)
c0102a00:	ff 74 24 5c          	pushl  0x5c(%esp)
c0102a04:	ff 74 24 5c          	pushl  0x5c(%esp)
c0102a08:	ff 74 24 5c          	pushl  0x5c(%esp)
c0102a0c:	e8 1a e9 ff ff       	call   c010132b <sys_return>
c0102a11:	83 c4 4c             	add    $0x4c,%esp
c0102a14:	5b                   	pop    %ebx
c0102a15:	5e                   	pop    %esi
c0102a16:	5f                   	pop    %edi
c0102a17:	5d                   	pop    %ebp
c0102a18:	c3                   	ret    
c0102a19:	8d b4 26 00 00 00 00 	lea    0x0(%esi,%eiz,1),%esi

c0102a20 <get_pid>:
c0102a20:	a1 dc e0 12 c0       	mov    0xc012e0dc,%eax
c0102a25:	8b 40 38             	mov    0x38(%eax),%eax
c0102a28:	89 44 24 14          	mov    %eax,0x14(%esp)
c0102a2c:	e9 fa e8 ff ff       	jmp    c010132b <sys_return>
c0102a31:	66 90                	xchg   %ax,%ax
c0102a33:	66 90                	xchg   %ax,%ax
c0102a35:	66 90                	xchg   %ax,%ax
c0102a37:	66 90                	xchg   %ax,%ax
c0102a39:	66 90                	xchg   %ax,%ax
c0102a3b:	66 90                	xchg   %ax,%ax
c0102a3d:	66 90                	xchg   %ax,%ax
c0102a3f:	90                   	nop

c0102a40 <to_virtual>:
c0102a40:	8b 44 24 04          	mov    0x4(%esp),%eax
c0102a44:	2d 00 00 00 40       	sub    $0x40000000,%eax
c0102a49:	c3                   	ret    
c0102a4a:	8d b6 00 00 00 00    	lea    0x0(%esi),%esi

c0102a50 <virtualize_multiboot_info>:
c0102a50:	8b 44 24 04          	mov    0x4(%esp),%eax
c0102a54:	2d 00 00 00 40       	sub    $0x40000000,%eax
c0102a59:	81 68 18 00 00 00 40 	subl   $0x40000000,0x18(%eax)
c0102a60:	81 68 30 00 00 00 40 	subl   $0x40000000,0x30(%eax)
c0102a67:	c3                   	ret    
c0102a68:	90                   	nop
c0102a69:	8d b4 26 00 00 00 00 	lea    0x0(%esi,%eiz,1),%esi

c0102a70 <kernel_main>:
c0102a70:	56                   	push   %esi
c0102a71:	53                   	push   %ebx
c0102a72:	83 ec 04             	sub    $0x4,%esp
c0102a75:	8b 5c 24 10          	mov    0x10(%esp),%ebx
c0102a79:	8b 74 24 14          	mov    0x14(%esp),%esi
c0102a7d:	e8 8e d7 ff ff       	call   c0100210 <terminal_initialize>
c0102a82:	81 fb 02 b0 ad 2b    	cmp    $0x2badb002,%ebx
c0102a88:	74 26                	je     c0102ab0 <kernel_main+0x40>
c0102a8a:	83 ec 04             	sub    $0x4,%esp
c0102a8d:	56                   	push   %esi
c0102a8e:	53                   	push   %ebx
c0102a8f:	68 14 51 10 c0       	push   $0xc0105114
c0102a94:	e8 77 00 00 00       	call   c0102b10 <printf>
c0102a99:	83 c4 10             	add    $0x10,%esp
c0102a9c:	83 c4 04             	add    $0x4,%esp
c0102a9f:	5b                   	pop    %ebx
c0102aa0:	5e                   	pop    %esi
c0102aa1:	c3                   	ret    
c0102aa2:	8d b4 26 00 00 00 00 	lea    0x0(%esi,%eiz,1),%esi
c0102aa9:	8d bc 27 00 00 00 00 	lea    0x0(%edi,%eiz,1),%edi
c0102ab0:	8d 9e 00 00 00 c0    	lea    -0x40000000(%esi),%ebx
c0102ab6:	83 ec 0c             	sub    $0xc,%esp
c0102ab9:	81 6b 18 00 00 00 40 	subl   $0x40000000,0x18(%ebx)
c0102ac0:	81 6b 30 00 00 00 40 	subl   $0x40000000,0x30(%ebx)
c0102ac7:	53                   	push   %ebx
c0102ac8:	e8 93 f5 ff ff       	call   c0102060 <init_bitmap>
c0102acd:	e8 9e e7 ff ff       	call   c0101270 <initialize_input>
c0102ad2:	58                   	pop    %eax
c0102ad3:	ff 73 18             	pushl  0x18(%ebx)
c0102ad6:	e8 f5 f7 ff ff       	call   c01022d0 <load_module>
c0102adb:	83 c4 10             	add    $0x10,%esp
c0102ade:	83 7b 14 02          	cmpl   $0x2,0x14(%ebx)
c0102ae2:	74 02                	je     c0102ae6 <kernel_main+0x76>
c0102ae4:	eb fe                	jmp    c0102ae4 <kernel_main+0x74>
c0102ae6:	f6 86 00 00 00 c0 08 	testb  $0x8,-0x40000000(%esi)
c0102aed:	74 f5                	je     c0102ae4 <kernel_main+0x74>
c0102aef:	83 ec 0c             	sub    $0xc,%esp
c0102af2:	50                   	push   %eax
c0102af3:	e8 a8 fa ff ff       	call   c01025a0 <add_process>
c0102af8:	89 04 24             	mov    %eax,(%esp)
c0102afb:	e8 40 fb ff ff       	call   c0102640 <run_process>
c0102b00:	83 c4 10             	add    $0x10,%esp
c0102b03:	eb df                	jmp    c0102ae4 <kernel_main+0x74>
c0102b05:	66 90                	xchg   %ax,%ax
c0102b07:	66 90                	xchg   %ax,%ax
c0102b09:	66 90                	xchg   %ax,%ax
c0102b0b:	66 90                	xchg   %ax,%ax
c0102b0d:	66 90                	xchg   %ax,%ax
c0102b0f:	90                   	nop

c0102b10 <printf>:
c0102b10:	55                   	push   %ebp
c0102b11:	57                   	push   %edi
c0102b12:	56                   	push   %esi
c0102b13:	53                   	push   %ebx
c0102b14:	83 ec 3c             	sub    $0x3c,%esp
c0102b17:	8b 6c 24 50          	mov    0x50(%esp),%ebp
c0102b1b:	8d 44 24 54          	lea    0x54(%esp),%eax
c0102b1f:	c7 04 24 00 00 00 00 	movl   $0x0,(%esp)
c0102b26:	89 44 24 10          	mov    %eax,0x10(%esp)
c0102b2a:	0f b6 45 00          	movzbl 0x0(%ebp),%eax
c0102b2e:	66 90                	xchg   %ax,%ax
c0102b30:	84 c0                	test   %al,%al
c0102b32:	0f 84 9c 00 00 00    	je     c0102bd4 <printf+0xc4>
c0102b38:	bf ff ff ff 7f       	mov    $0x7fffffff,%edi
c0102b3d:	2b 3c 24             	sub    (%esp),%edi
c0102b40:	3c 25                	cmp    $0x25,%al
c0102b42:	89 7c 24 04          	mov    %edi,0x4(%esp)
c0102b46:	0f 84 a4 00 00 00    	je     c0102bf0 <printf+0xe0>
c0102b4c:	8b 44 24 50          	mov    0x50(%esp),%eax
c0102b50:	0f b6 40 01          	movzbl 0x1(%eax),%eax
c0102b54:	84 c0                	test   %al,%al
c0102b56:	0f 84 2d 01 00 00    	je     c0102c89 <printf+0x179>
c0102b5c:	3c 25                	cmp    $0x25,%al
c0102b5e:	0f 84 25 01 00 00    	je     c0102c89 <printf+0x179>
c0102b64:	8b 44 24 50          	mov    0x50(%esp),%eax
c0102b68:	bf 01 00 00 00       	mov    $0x1,%edi
c0102b6d:	8d 50 02             	lea    0x2(%eax),%edx
c0102b70:	eb 12                	jmp    c0102b84 <printf+0x74>
c0102b72:	8d b4 26 00 00 00 00 	lea    0x0(%esi,%eiz,1),%esi
c0102b79:	8d bc 27 00 00 00 00 	lea    0x0(%edi,%eiz,1),%edi
c0102b80:	3c 25                	cmp    $0x25,%al
c0102b82:	74 0f                	je     c0102b93 <printf+0x83>
c0102b84:	0f b6 02             	movzbl (%edx),%eax
c0102b87:	83 c7 01             	add    $0x1,%edi
c0102b8a:	89 d3                	mov    %edx,%ebx
c0102b8c:	83 c2 01             	add    $0x1,%edx
c0102b8f:	84 c0                	test   %al,%al
c0102b91:	75 ed                	jne    c0102b80 <printf+0x70>
c0102b93:	39 7c 24 04          	cmp    %edi,0x4(%esp)
c0102b97:	72 34                	jb     c0102bcd <printf+0xbd>
c0102b99:	85 ff                	test   %edi,%edi
c0102b9b:	74 46                	je     c0102be3 <printf+0xd3>
c0102b9d:	31 f6                	xor    %esi,%esi
c0102b9f:	8b 6c 24 50          	mov    0x50(%esp),%ebp
c0102ba3:	eb 12                	jmp    c0102bb7 <printf+0xa7>
c0102ba5:	8d 74 26 00          	lea    0x0(%esi,%eiz,1),%esi
c0102ba9:	8d bc 27 00 00 00 00 	lea    0x0(%edi,%eiz,1),%edi
c0102bb0:	83 c6 01             	add    $0x1,%esi
c0102bb3:	39 fe                	cmp    %edi,%esi
c0102bb5:	73 29                	jae    c0102be0 <printf+0xd0>
c0102bb7:	0f b6 44 35 00       	movzbl 0x0(%ebp,%esi,1),%eax
c0102bbc:	83 ec 0c             	sub    $0xc,%esp
c0102bbf:	50                   	push   %eax
c0102bc0:	e8 1b 12 00 00       	call   c0103de0 <putchar>
c0102bc5:	83 c4 10             	add    $0x10,%esp
c0102bc8:	83 f8 ff             	cmp    $0xffffffff,%eax
c0102bcb:	75 e3                	jne    c0102bb0 <printf+0xa0>
c0102bcd:	c7 04 24 ff ff ff ff 	movl   $0xffffffff,(%esp)
c0102bd4:	8b 04 24             	mov    (%esp),%eax
c0102bd7:	83 c4 3c             	add    $0x3c,%esp
c0102bda:	5b                   	pop    %ebx
c0102bdb:	5e                   	pop    %esi
c0102bdc:	5f                   	pop    %edi
c0102bdd:	5d                   	pop    %ebp
c0102bde:	c3                   	ret    
c0102bdf:	90                   	nop
c0102be0:	0f b6 03             	movzbl (%ebx),%eax
c0102be3:	01 3c 24             	add    %edi,(%esp)
c0102be6:	89 5c 24 50          	mov    %ebx,0x50(%esp)
c0102bea:	e9 41 ff ff ff       	jmp    c0102b30 <printf+0x20>
c0102bef:	90                   	nop
c0102bf0:	8b 44 24 50          	mov    0x50(%esp),%eax
c0102bf4:	31 ff                	xor    %edi,%edi
c0102bf6:	0f b6 48 01          	movzbl 0x1(%eax),%ecx
c0102bfa:	8d 68 01             	lea    0x1(%eax),%ebp
c0102bfd:	80 f9 25             	cmp    $0x25,%cl
c0102c00:	75 3f                	jne    c0102c41 <printf+0x131>
c0102c02:	eb 71                	jmp    c0102c75 <printf+0x165>
c0102c04:	8d b6 00 00 00 00    	lea    0x0(%esi),%esi
c0102c0a:	8d bf 00 00 00 00    	lea    0x0(%edi),%edi
c0102c10:	89 c8                	mov    %ecx,%eax
c0102c12:	83 e0 ef             	and    $0xffffffef,%eax
c0102c15:	3c 20                	cmp    $0x20,%al
c0102c17:	74 09                	je     c0102c22 <printf+0x112>
c0102c19:	80 f9 23             	cmp    $0x23,%cl
c0102c1c:	0f 85 8e 00 00 00    	jne    c0102cb0 <printf+0x1a0>
c0102c22:	80 f9 2b             	cmp    $0x2b,%cl
c0102c25:	74 39                	je     c0102c60 <printf+0x150>
c0102c27:	80 f9 20             	cmp    $0x20,%cl
c0102c2a:	74 44                	je     c0102c70 <printf+0x160>
c0102c2c:	89 f8                	mov    %edi,%eax
c0102c2e:	83 cf 01             	or     $0x1,%edi
c0102c31:	83 c8 02             	or     $0x2,%eax
c0102c34:	80 f9 23             	cmp    $0x23,%cl
c0102c37:	0f 44 f8             	cmove  %eax,%edi
c0102c3a:	83 c5 01             	add    $0x1,%ebp
c0102c3d:	0f b6 4d 00          	movzbl 0x0(%ebp),%ecx
c0102c41:	8d 41 d5             	lea    -0x2b(%ecx),%eax
c0102c44:	a8 fd                	test   $0xfd,%al
c0102c46:	75 c8                	jne    c0102c10 <printf+0x100>
c0102c48:	80 f9 2d             	cmp    $0x2d,%cl
c0102c4b:	75 13                	jne    c0102c60 <printf+0x150>
c0102c4d:	83 cf 10             	or     $0x10,%edi
c0102c50:	eb e8                	jmp    c0102c3a <printf+0x12a>
c0102c52:	8d b4 26 00 00 00 00 	lea    0x0(%esi,%eiz,1),%esi
c0102c59:	8d bc 27 00 00 00 00 	lea    0x0(%edi,%eiz,1),%edi
c0102c60:	83 cf 08             	or     $0x8,%edi
c0102c63:	eb d5                	jmp    c0102c3a <printf+0x12a>
c0102c65:	8d 74 26 00          	lea    0x0(%esi,%eiz,1),%esi
c0102c69:	8d bc 27 00 00 00 00 	lea    0x0(%edi,%eiz,1),%edi
c0102c70:	83 cf 04             	or     $0x4,%edi
c0102c73:	eb c5                	jmp    c0102c3a <printf+0x12a>
c0102c75:	89 6c 24 50          	mov    %ebp,0x50(%esp)
c0102c79:	8b 44 24 50          	mov    0x50(%esp),%eax
c0102c7d:	0f b6 40 01          	movzbl 0x1(%eax),%eax
c0102c81:	84 c0                	test   %al,%al
c0102c83:	0f 85 d3 fe ff ff    	jne    c0102b5c <printf+0x4c>
c0102c89:	8b 44 24 04          	mov    0x4(%esp),%eax
c0102c8d:	85 c0                	test   %eax,%eax
c0102c8f:	0f 84 38 ff ff ff    	je     c0102bcd <printf+0xbd>
c0102c95:	8b 44 24 50          	mov    0x50(%esp),%eax
c0102c99:	bf 01 00 00 00       	mov    $0x1,%edi
c0102c9e:	8d 58 01             	lea    0x1(%eax),%ebx
c0102ca1:	e9 f7 fe ff ff       	jmp    c0102b9d <printf+0x8d>
c0102ca6:	8d 76 00             	lea    0x0(%esi),%esi
c0102ca9:	8d bc 27 00 00 00 00 	lea    0x0(%edi,%eiz,1),%edi
c0102cb0:	80 f9 2a             	cmp    $0x2a,%cl
c0102cb3:	0f 84 b1 07 00 00    	je     c010346a <printf+0x95a>
c0102cb9:	8d 51 d0             	lea    -0x30(%ecx),%edx
c0102cbc:	31 f6                	xor    %esi,%esi
c0102cbe:	8d 45 01             	lea    0x1(%ebp),%eax
c0102cc1:	80 fa 09             	cmp    $0x9,%dl
c0102cc4:	0f 87 20 0a 00 00    	ja     c01036ea <printf+0xbda>
c0102cca:	8d b6 00 00 00 00    	lea    0x0(%esi),%esi
c0102cd0:	0f b6 08             	movzbl (%eax),%ecx
c0102cd3:	83 c6 01             	add    $0x1,%esi
c0102cd6:	89 c2                	mov    %eax,%edx
c0102cd8:	8d 40 01             	lea    0x1(%eax),%eax
c0102cdb:	8d 59 d0             	lea    -0x30(%ecx),%ebx
c0102cde:	80 fb 09             	cmp    $0x9,%bl
c0102ce1:	76 ed                	jbe    c0102cd0 <printf+0x1c0>
c0102ce3:	89 f8                	mov    %edi,%eax
c0102ce5:	31 db                	xor    %ebx,%ebx
c0102ce7:	89 54 24 0c          	mov    %edx,0xc(%esp)
c0102ceb:	88 44 24 14          	mov    %al,0x14(%esp)
c0102cef:	89 df                	mov    %ebx,%edi
c0102cf1:	eb 0d                	jmp    c0102d00 <printf+0x1f0>
c0102cf3:	90                   	nop
c0102cf4:	90                   	nop
c0102cf5:	90                   	nop
c0102cf6:	90                   	nop
c0102cf7:	90                   	nop
c0102cf8:	90                   	nop
c0102cf9:	90                   	nop
c0102cfa:	90                   	nop
c0102cfb:	90                   	nop
c0102cfc:	90                   	nop
c0102cfd:	90                   	nop
c0102cfe:	90                   	nop
c0102cff:	90                   	nop
c0102d00:	0f be 45 00          	movsbl 0x0(%ebp),%eax
c0102d04:	83 e8 30             	sub    $0x30,%eax
c0102d07:	83 fe 01             	cmp    $0x1,%esi
c0102d0a:	74 23                	je     c0102d2f <printf+0x21f>
c0102d0c:	ba 01 00 00 00       	mov    $0x1,%edx
c0102d11:	eb 0d                	jmp    c0102d20 <printf+0x210>
c0102d13:	90                   	nop
c0102d14:	90                   	nop
c0102d15:	90                   	nop
c0102d16:	90                   	nop
c0102d17:	90                   	nop
c0102d18:	90                   	nop
c0102d19:	90                   	nop
c0102d1a:	90                   	nop
c0102d1b:	90                   	nop
c0102d1c:	90                   	nop
c0102d1d:	90                   	nop
c0102d1e:	90                   	nop
c0102d1f:	90                   	nop
c0102d20:	83 c2 01             	add    $0x1,%edx
c0102d23:	8d 04 80             	lea    (%eax,%eax,4),%eax
c0102d26:	0f b6 da             	movzbl %dl,%ebx
c0102d29:	01 c0                	add    %eax,%eax
c0102d2b:	39 de                	cmp    %ebx,%esi
c0102d2d:	77 f1                	ja     c0102d20 <printf+0x210>
c0102d2f:	01 c7                	add    %eax,%edi
c0102d31:	83 c5 01             	add    $0x1,%ebp
c0102d34:	83 ee 01             	sub    $0x1,%esi
c0102d37:	75 c7                	jne    c0102d00 <printf+0x1f0>
c0102d39:	89 7c 24 08          	mov    %edi,0x8(%esp)
c0102d3d:	0f b6 7c 24 14       	movzbl 0x14(%esp),%edi
c0102d42:	8b 6c 24 0c          	mov    0xc(%esp),%ebp
c0102d46:	80 f9 2e             	cmp    $0x2e,%cl
c0102d49:	c7 44 24 0c ff ff ff 	movl   $0xffffffff,0xc(%esp)
c0102d50:	ff 
c0102d51:	75 14                	jne    c0102d67 <printf+0x257>
c0102d53:	e9 8c 01 00 00       	jmp    c0102ee4 <printf+0x3d4>
c0102d58:	90                   	nop
c0102d59:	8d b4 26 00 00 00 00 	lea    0x0(%esi,%eiz,1),%esi
c0102d60:	83 c5 01             	add    $0x1,%ebp
c0102d63:	0f b6 4d 00          	movzbl 0x0(%ebp),%ecx
c0102d67:	80 f9 68             	cmp    $0x68,%cl
c0102d6a:	74 f4                	je     c0102d60 <printf+0x250>
c0102d6c:	80 f9 6c             	cmp    $0x6c,%cl
c0102d6f:	75 1b                	jne    c0102d8c <printf+0x27c>
c0102d71:	eb 0d                	jmp    c0102d80 <printf+0x270>
c0102d73:	90                   	nop
c0102d74:	90                   	nop
c0102d75:	90                   	nop
c0102d76:	90                   	nop
c0102d77:	90                   	nop
c0102d78:	90                   	nop
c0102d79:	90                   	nop
c0102d7a:	90                   	nop
c0102d7b:	90                   	nop
c0102d7c:	90                   	nop
c0102d7d:	90                   	nop
c0102d7e:	90                   	nop
c0102d7f:	90                   	nop
c0102d80:	83 c5 01             	add    $0x1,%ebp
c0102d83:	0f b6 4d 00          	movzbl 0x0(%ebp),%ecx
c0102d87:	80 f9 6c             	cmp    $0x6c,%cl
c0102d8a:	74 f4                	je     c0102d80 <printf+0x270>
c0102d8c:	80 f9 6a             	cmp    $0x6a,%cl
c0102d8f:	0f 84 ae 00 00 00    	je     c0102e43 <printf+0x333>
c0102d95:	80 f9 7a             	cmp    $0x7a,%cl
c0102d98:	0f 84 a5 00 00 00    	je     c0102e43 <printf+0x333>
c0102d9e:	80 f9 74             	cmp    $0x74,%cl
c0102da1:	0f 84 9c 00 00 00    	je     c0102e43 <printf+0x333>
c0102da7:	31 c0                	xor    %eax,%eax
c0102da9:	80 f9 4c             	cmp    $0x4c,%cl
c0102dac:	0f 94 c0             	sete   %al
c0102daf:	01 c5                	add    %eax,%ebp
c0102db1:	0f b6 45 00          	movzbl 0x0(%ebp),%eax
c0102db5:	3c 63                	cmp    $0x63,%al
c0102db7:	0f 85 95 00 00 00    	jne    c0102e52 <printf+0x342>
c0102dbd:	8b 44 24 10          	mov    0x10(%esp),%eax
c0102dc1:	bb 01 00 00 00       	mov    $0x1,%ebx
c0102dc6:	8d 48 04             	lea    0x4(%eax),%ecx
c0102dc9:	8b 00                	mov    (%eax),%eax
c0102dcb:	89 4c 24 10          	mov    %ecx,0x10(%esp)
c0102dcf:	89 44 24 0c          	mov    %eax,0xc(%esp)
c0102dd3:	8b 44 24 08          	mov    0x8(%esp),%eax
c0102dd7:	85 c0                	test   %eax,%eax
c0102dd9:	0f 4f d8             	cmovg  %eax,%ebx
c0102ddc:	39 5c 24 04          	cmp    %ebx,0x4(%esp)
c0102de0:	0f 82 e7 fd ff ff    	jb     c0102bcd <printf+0xbd>
c0102de6:	83 e7 10             	and    $0x10,%edi
c0102de9:	0f 85 d1 09 00 00    	jne    c01037c0 <printf+0xcb0>
c0102def:	31 f6                	xor    %esi,%esi
c0102df1:	83 fb 01             	cmp    $0x1,%ebx
c0102df4:	8d 7b ff             	lea    -0x1(%ebx),%edi
c0102df7:	74 1d                	je     c0102e16 <printf+0x306>
c0102df9:	83 ec 0c             	sub    $0xc,%esp
c0102dfc:	6a 20                	push   $0x20
c0102dfe:	e8 dd 0f 00 00       	call   c0103de0 <putchar>
c0102e03:	83 c4 10             	add    $0x10,%esp
c0102e06:	83 f8 ff             	cmp    $0xffffffff,%eax
c0102e09:	0f 84 be fd ff ff    	je     c0102bcd <printf+0xbd>
c0102e0f:	83 c6 01             	add    $0x1,%esi
c0102e12:	39 f7                	cmp    %esi,%edi
c0102e14:	75 e3                	jne    c0102df9 <printf+0x2e9>
c0102e16:	83 ec 0c             	sub    $0xc,%esp
c0102e19:	0f b6 44 24 18       	movzbl 0x18(%esp),%eax
c0102e1e:	50                   	push   %eax
c0102e1f:	e8 bc 0f 00 00       	call   c0103de0 <putchar>
c0102e24:	83 c4 10             	add    $0x10,%esp
c0102e27:	83 f8 ff             	cmp    $0xffffffff,%eax
c0102e2a:	0f 84 9d fd ff ff    	je     c0102bcd <printf+0xbd>
c0102e30:	8d 45 01             	lea    0x1(%ebp),%eax
c0102e33:	01 1c 24             	add    %ebx,(%esp)
c0102e36:	89 44 24 50          	mov    %eax,0x50(%esp)
c0102e3a:	0f b6 45 01          	movzbl 0x1(%ebp),%eax
c0102e3e:	e9 ed fc ff ff       	jmp    c0102b30 <printf+0x20>
c0102e43:	83 c5 01             	add    $0x1,%ebp
c0102e46:	0f b6 45 00          	movzbl 0x0(%ebp),%eax
c0102e4a:	3c 63                	cmp    $0x63,%al
c0102e4c:	0f 84 6b ff ff ff    	je     c0102dbd <printf+0x2ad>
c0102e52:	3c 73                	cmp    $0x73,%al
c0102e54:	0f 84 2f 06 00 00    	je     c0103489 <printf+0x979>
c0102e5a:	3c 6f                	cmp    $0x6f,%al
c0102e5c:	0f 84 d2 06 00 00    	je     c0103534 <printf+0xa24>
c0102e62:	89 c2                	mov    %eax,%edx
c0102e64:	83 e2 df             	and    $0xffffffdf,%edx
c0102e67:	80 fa 58             	cmp    $0x58,%dl
c0102e6a:	0f 84 a1 02 00 00    	je     c0103111 <printf+0x601>
c0102e70:	3c 75                	cmp    $0x75,%al
c0102e72:	0f 84 5b 04 00 00    	je     c01032d3 <printf+0x7c3>
c0102e78:	3c 64                	cmp    $0x64,%al
c0102e7a:	0f 84 0b 01 00 00    	je     c0102f8b <printf+0x47b>
c0102e80:	3c 69                	cmp    $0x69,%al
c0102e82:	0f 84 03 01 00 00    	je     c0102f8b <printf+0x47b>
c0102e88:	83 ec 0c             	sub    $0xc,%esp
c0102e8b:	ff 74 24 5c          	pushl  0x5c(%esp)
c0102e8f:	e8 fc 0f 00 00       	call   c0103e90 <strlen>
c0102e94:	83 c4 10             	add    $0x10,%esp
c0102e97:	89 c3                	mov    %eax,%ebx
c0102e99:	39 44 24 04          	cmp    %eax,0x4(%esp)
c0102e9d:	0f 82 2a fd ff ff    	jb     c0102bcd <printf+0xbd>
c0102ea3:	85 c0                	test   %eax,%eax
c0102ea5:	8b 7c 24 50          	mov    0x50(%esp),%edi
c0102ea9:	0f 84 53 02 00 00    	je     c0103102 <printf+0x5f2>
c0102eaf:	8b 74 24 50          	mov    0x50(%esp),%esi
c0102eb3:	8d 3c 06             	lea    (%esi,%eax,1),%edi
c0102eb6:	eb 13                	jmp    c0102ecb <printf+0x3bb>
c0102eb8:	90                   	nop
c0102eb9:	8d b4 26 00 00 00 00 	lea    0x0(%esi,%eiz,1),%esi
c0102ec0:	83 c6 01             	add    $0x1,%esi
c0102ec3:	39 f7                	cmp    %esi,%edi
c0102ec5:	0f 84 37 02 00 00    	je     c0103102 <printf+0x5f2>
c0102ecb:	0f b6 06             	movzbl (%esi),%eax
c0102ece:	83 ec 0c             	sub    $0xc,%esp
c0102ed1:	50                   	push   %eax
c0102ed2:	e8 09 0f 00 00       	call   c0103de0 <putchar>
c0102ed7:	83 c4 10             	add    $0x10,%esp
c0102eda:	83 f8 ff             	cmp    $0xffffffff,%eax
c0102edd:	75 e1                	jne    c0102ec0 <printf+0x3b0>
c0102edf:	e9 e9 fc ff ff       	jmp    c0102bcd <printf+0xbd>
c0102ee4:	0f b6 4d 01          	movzbl 0x1(%ebp),%ecx
c0102ee8:	8d 5d 01             	lea    0x1(%ebp),%ebx
c0102eeb:	80 f9 2a             	cmp    $0x2a,%cl
c0102eee:	0f 84 18 0b 00 00    	je     c0103a0c <printf+0xefc>
c0102ef4:	8d 51 d0             	lea    -0x30(%ecx),%edx
c0102ef7:	31 c0                	xor    %eax,%eax
c0102ef9:	80 fa 09             	cmp    $0x9,%dl
c0102efc:	0f 87 01 0e 00 00    	ja     c0103d03 <printf+0x11f3>
c0102f02:	89 5c 24 0c          	mov    %ebx,0xc(%esp)
c0102f06:	8d 76 00             	lea    0x0(%esi),%esi
c0102f09:	8d bc 27 00 00 00 00 	lea    0x0(%edi,%eiz,1),%edi
c0102f10:	8d 70 01             	lea    0x1(%eax),%esi
c0102f13:	8d 5c 05 02          	lea    0x2(%ebp,%eax,1),%ebx
c0102f17:	0f b6 4c 35 01       	movzbl 0x1(%ebp,%esi,1),%ecx
c0102f1c:	89 f0                	mov    %esi,%eax
c0102f1e:	8d 51 d0             	lea    -0x30(%ecx),%edx
c0102f21:	80 fa 09             	cmp    $0x9,%dl
c0102f24:	76 ea                	jbe    c0102f10 <printf+0x400>
c0102f26:	89 5c 24 14          	mov    %ebx,0x14(%esp)
c0102f2a:	8b 5c 24 0c          	mov    0xc(%esp),%ebx
c0102f2e:	89 f8                	mov    %edi,%eax
c0102f30:	88 44 24 18          	mov    %al,0x18(%esp)
c0102f34:	89 dd                	mov    %ebx,%ebp
c0102f36:	31 db                	xor    %ebx,%ebx
c0102f38:	89 df                	mov    %ebx,%edi
c0102f3a:	8d b6 00 00 00 00    	lea    0x0(%esi),%esi
c0102f40:	0f be 45 00          	movsbl 0x0(%ebp),%eax
c0102f44:	83 e8 30             	sub    $0x30,%eax
c0102f47:	83 fe 01             	cmp    $0x1,%esi
c0102f4a:	74 23                	je     c0102f6f <printf+0x45f>
c0102f4c:	ba 01 00 00 00       	mov    $0x1,%edx
c0102f51:	eb 0d                	jmp    c0102f60 <printf+0x450>
c0102f53:	90                   	nop
c0102f54:	90                   	nop
c0102f55:	90                   	nop
c0102f56:	90                   	nop
c0102f57:	90                   	nop
c0102f58:	90                   	nop
c0102f59:	90                   	nop
c0102f5a:	90                   	nop
c0102f5b:	90                   	nop
c0102f5c:	90                   	nop
c0102f5d:	90                   	nop
c0102f5e:	90                   	nop
c0102f5f:	90                   	nop
c0102f60:	83 c2 01             	add    $0x1,%edx
c0102f63:	8d 04 80             	lea    (%eax,%eax,4),%eax
c0102f66:	0f b6 da             	movzbl %dl,%ebx
c0102f69:	01 c0                	add    %eax,%eax
c0102f6b:	39 f3                	cmp    %esi,%ebx
c0102f6d:	72 f1                	jb     c0102f60 <printf+0x450>
c0102f6f:	01 c7                	add    %eax,%edi
c0102f71:	83 c5 01             	add    $0x1,%ebp
c0102f74:	83 ee 01             	sub    $0x1,%esi
c0102f77:	75 c7                	jne    c0102f40 <printf+0x430>
c0102f79:	89 7c 24 0c          	mov    %edi,0xc(%esp)
c0102f7d:	8b 6c 24 14          	mov    0x14(%esp),%ebp
c0102f81:	0f b6 7c 24 18       	movzbl 0x18(%esp),%edi
c0102f86:	e9 dc fd ff ff       	jmp    c0102d67 <printf+0x257>
c0102f8b:	8b 44 24 10          	mov    0x10(%esp),%eax
c0102f8f:	bb 01 00 00 00       	mov    $0x1,%ebx
c0102f94:	8d 48 04             	lea    0x4(%eax),%ecx
c0102f97:	8b 00                	mov    (%eax),%eax
c0102f99:	89 4c 24 18          	mov    %ecx,0x18(%esp)
c0102f9d:	83 f8 09             	cmp    $0x9,%eax
c0102fa0:	89 44 24 0c          	mov    %eax,0xc(%esp)
c0102fa4:	0f 86 68 0d 00 00    	jbe    c0103d12 <printf+0x1202>
c0102faa:	be 01 00 00 00       	mov    $0x1,%esi
c0102faf:	89 c1                	mov    %eax,%ecx
c0102fb1:	eb 0d                	jmp    c0102fc0 <printf+0x4b0>
c0102fb3:	90                   	nop
c0102fb4:	90                   	nop
c0102fb5:	90                   	nop
c0102fb6:	90                   	nop
c0102fb7:	90                   	nop
c0102fb8:	90                   	nop
c0102fb9:	90                   	nop
c0102fba:	90                   	nop
c0102fbb:	90                   	nop
c0102fbc:	90                   	nop
c0102fbd:	90                   	nop
c0102fbe:	90                   	nop
c0102fbf:	90                   	nop
c0102fc0:	8d 1c 9b             	lea    (%ebx,%ebx,4),%ebx
c0102fc3:	31 d2                	xor    %edx,%edx
c0102fc5:	89 c8                	mov    %ecx,%eax
c0102fc7:	83 c6 01             	add    $0x1,%esi
c0102fca:	01 db                	add    %ebx,%ebx
c0102fcc:	f7 f3                	div    %ebx
c0102fce:	83 f8 09             	cmp    $0x9,%eax
c0102fd1:	77 ed                	ja     c0102fc0 <printf+0x4b0>
c0102fd3:	89 74 24 10          	mov    %esi,0x10(%esp)
c0102fd7:	f7 c7 0c 00 00 00    	test   $0xc,%edi
c0102fdd:	0f 84 df 02 00 00    	je     c01032c2 <printf+0x7b2>
c0102fe3:	83 44 24 10 01       	addl   $0x1,0x10(%esp)
c0102fe8:	8b 44 24 08          	mov    0x8(%esp),%eax
c0102fec:	8b 4c 24 10          	mov    0x10(%esp),%ecx
c0102ff0:	39 c1                	cmp    %eax,%ecx
c0102ff2:	89 44 24 14          	mov    %eax,0x14(%esp)
c0102ff6:	76 08                	jbe    c0103000 <printf+0x4f0>
c0102ff8:	89 4c 24 08          	mov    %ecx,0x8(%esp)
c0102ffc:	89 4c 24 14          	mov    %ecx,0x14(%esp)
c0103000:	8b 4c 24 14          	mov    0x14(%esp),%ecx
c0103004:	39 4c 24 04          	cmp    %ecx,0x4(%esp)
c0103008:	0f 82 bf fb ff ff    	jb     c0102bcd <printf+0xbd>
c010300e:	89 f8                	mov    %edi,%eax
c0103010:	83 e0 11             	and    $0x11,%eax
c0103013:	88 44 24 04          	mov    %al,0x4(%esp)
c0103017:	75 38                	jne    c0103051 <printf+0x541>
c0103019:	31 f6                	xor    %esi,%esi
c010301b:	8b 44 24 14          	mov    0x14(%esp),%eax
c010301f:	2b 44 24 10          	sub    0x10(%esp),%eax
c0103023:	74 2c                	je     c0103051 <printf+0x541>
c0103025:	89 5c 24 1c          	mov    %ebx,0x1c(%esp)
c0103029:	89 c3                	mov    %eax,%ebx
c010302b:	90                   	nop
c010302c:	8d 74 26 00          	lea    0x0(%esi,%eiz,1),%esi
c0103030:	83 ec 0c             	sub    $0xc,%esp
c0103033:	6a 20                	push   $0x20
c0103035:	e8 a6 0d 00 00       	call   c0103de0 <putchar>
c010303a:	83 c4 10             	add    $0x10,%esp
c010303d:	83 f8 ff             	cmp    $0xffffffff,%eax
c0103040:	0f 84 87 fb ff ff    	je     c0102bcd <printf+0xbd>
c0103046:	83 c6 01             	add    $0x1,%esi
c0103049:	39 de                	cmp    %ebx,%esi
c010304b:	75 e3                	jne    c0103030 <printf+0x520>
c010304d:	8b 5c 24 1c          	mov    0x1c(%esp),%ebx
c0103051:	8b 4c 24 0c          	mov    0xc(%esp),%ecx
c0103055:	85 c9                	test   %ecx,%ecx
c0103057:	0f 88 13 09 00 00    	js     c0103970 <printf+0xe60>
c010305d:	f7 c7 08 00 00 00    	test   $0x8,%edi
c0103063:	0f 84 ab 08 00 00    	je     c0103914 <printf+0xe04>
c0103069:	83 ec 0c             	sub    $0xc,%esp
c010306c:	6a 2b                	push   $0x2b
c010306e:	e8 6d 0d 00 00       	call   c0103de0 <putchar>
c0103073:	83 c4 10             	add    $0x10,%esp
c0103076:	83 f8 ff             	cmp    $0xffffffff,%eax
c0103079:	0f 84 4e fb ff ff    	je     c0102bcd <printf+0xbd>
c010307f:	80 7c 24 04 01       	cmpb   $0x1,0x4(%esp)
c0103084:	0f 84 06 09 00 00    	je     c0103990 <printf+0xe80>
c010308a:	c6 44 24 04 20       	movb   $0x20,0x4(%esp)
c010308f:	8b 54 24 0c          	mov    0xc(%esp),%edx
c0103093:	85 d2                	test   %edx,%edx
c0103095:	0f 85 5c 06 00 00    	jne    c01036f7 <printf+0xbe7>
c010309b:	83 ec 0c             	sub    $0xc,%esp
c010309e:	6a 30                	push   $0x30
c01030a0:	e8 3b 0d 00 00       	call   c0103de0 <putchar>
c01030a5:	83 c4 10             	add    $0x10,%esp
c01030a8:	83 f8 ff             	cmp    $0xffffffff,%eax
c01030ab:	0f 84 1c fb ff ff    	je     c0102bcd <printf+0xbd>
c01030b1:	83 e7 10             	and    $0x10,%edi
c01030b4:	74 2d                	je     c01030e3 <printf+0x5d3>
c01030b6:	31 f6                	xor    %esi,%esi
c01030b8:	8b 7c 24 14          	mov    0x14(%esp),%edi
c01030bc:	2b 7c 24 10          	sub    0x10(%esp),%edi
c01030c0:	0f be 5c 24 04       	movsbl 0x4(%esp),%ebx
c01030c5:	74 1c                	je     c01030e3 <printf+0x5d3>
c01030c7:	83 ec 0c             	sub    $0xc,%esp
c01030ca:	53                   	push   %ebx
c01030cb:	e8 10 0d 00 00       	call   c0103de0 <putchar>
c01030d0:	83 c4 10             	add    $0x10,%esp
c01030d3:	83 f8 ff             	cmp    $0xffffffff,%eax
c01030d6:	0f 84 f1 fa ff ff    	je     c0102bcd <printf+0xbd>
c01030dc:	83 c6 01             	add    $0x1,%esi
c01030df:	39 fe                	cmp    %edi,%esi
c01030e1:	75 e4                	jne    c01030c7 <printf+0x5b7>
c01030e3:	8b 7c 24 08          	mov    0x8(%esp),%edi
c01030e7:	01 3c 24             	add    %edi,(%esp)
c01030ea:	8d 45 01             	lea    0x1(%ebp),%eax
c01030ed:	8b 7c 24 18          	mov    0x18(%esp),%edi
c01030f1:	89 44 24 50          	mov    %eax,0x50(%esp)
c01030f5:	0f b6 45 01          	movzbl 0x1(%ebp),%eax
c01030f9:	89 7c 24 10          	mov    %edi,0x10(%esp)
c01030fd:	e9 2e fa ff ff       	jmp    c0102b30 <printf+0x20>
c0103102:	01 1c 24             	add    %ebx,(%esp)
c0103105:	89 7c 24 50          	mov    %edi,0x50(%esp)
c0103109:	0f b6 07             	movzbl (%edi),%eax
c010310c:	e9 1f fa ff ff       	jmp    c0102b30 <printf+0x20>
c0103111:	8b 44 24 10          	mov    0x10(%esp),%eax
c0103115:	be 01 00 00 00       	mov    $0x1,%esi
c010311a:	bb 01 00 00 00       	mov    $0x1,%ebx
c010311f:	8d 48 04             	lea    0x4(%eax),%ecx
c0103122:	8b 00                	mov    (%eax),%eax
c0103124:	89 4c 24 28          	mov    %ecx,0x28(%esp)
c0103128:	83 f8 0f             	cmp    $0xf,%eax
c010312b:	89 44 24 14          	mov    %eax,0x14(%esp)
c010312f:	76 20                	jbe    c0103151 <printf+0x641>
c0103131:	89 c1                	mov    %eax,%ecx
c0103133:	8d b6 00 00 00 00    	lea    0x0(%esi),%esi
c0103139:	8d bc 27 00 00 00 00 	lea    0x0(%edi,%eiz,1),%edi
c0103140:	c1 e6 04             	shl    $0x4,%esi
c0103143:	31 d2                	xor    %edx,%edx
c0103145:	89 c8                	mov    %ecx,%eax
c0103147:	f7 f6                	div    %esi
c0103149:	83 c3 01             	add    $0x1,%ebx
c010314c:	83 f8 0f             	cmp    $0xf,%eax
c010314f:	77 ef                	ja     c0103140 <printf+0x630>
c0103151:	8b 4c 24 0c          	mov    0xc(%esp),%ecx
c0103155:	85 c9                	test   %ecx,%ecx
c0103157:	75 0e                	jne    c0103167 <printf+0x657>
c0103159:	8b 54 24 14          	mov    0x14(%esp),%edx
c010315d:	b8 00 00 00 00       	mov    $0x0,%eax
c0103162:	85 d2                	test   %edx,%edx
c0103164:	0f 44 d8             	cmove  %eax,%ebx
c0103167:	8b 44 24 0c          	mov    0xc(%esp),%eax
c010316b:	85 c0                	test   %eax,%eax
c010316d:	89 44 24 1c          	mov    %eax,0x1c(%esp)
c0103171:	0f 88 ea 02 00 00    	js     c0103461 <printf+0x951>
c0103177:	39 c3                	cmp    %eax,%ebx
c0103179:	0f 83 e2 02 00 00    	jae    c0103461 <printf+0x951>
c010317f:	89 f8                	mov    %edi,%eax
c0103181:	89 f9                	mov    %edi,%ecx
c0103183:	83 e0 0c             	and    $0xc,%eax
c0103186:	3c 01                	cmp    $0x1,%al
c0103188:	8b 44 24 1c          	mov    0x1c(%esp),%eax
c010318c:	83 d8 ff             	sbb    $0xffffffff,%eax
c010318f:	89 c2                	mov    %eax,%edx
c0103191:	83 c0 02             	add    $0x2,%eax
c0103194:	83 e1 02             	and    $0x2,%ecx
c0103197:	88 4c 24 27          	mov    %cl,0x27(%esp)
c010319b:	8b 4c 24 08          	mov    0x8(%esp),%ecx
c010319f:	0f 44 c2             	cmove  %edx,%eax
c01031a2:	89 44 24 20          	mov    %eax,0x20(%esp)
c01031a6:	39 c8                	cmp    %ecx,%eax
c01031a8:	89 4c 24 18          	mov    %ecx,0x18(%esp)
c01031ac:	76 08                	jbe    c01031b6 <printf+0x6a6>
c01031ae:	89 44 24 08          	mov    %eax,0x8(%esp)
c01031b2:	89 44 24 18          	mov    %eax,0x18(%esp)
c01031b6:	8b 4c 24 18          	mov    0x18(%esp),%ecx
c01031ba:	39 4c 24 04          	cmp    %ecx,0x4(%esp)
c01031be:	0f 82 09 fa ff ff    	jb     c0102bcd <printf+0xbd>
c01031c4:	89 f8                	mov    %edi,%eax
c01031c6:	83 e0 11             	and    $0x11,%eax
c01031c9:	88 44 24 10          	mov    %al,0x10(%esp)
c01031cd:	75 46                	jne    c0103215 <printf+0x705>
c01031cf:	31 d2                	xor    %edx,%edx
c01031d1:	8b 44 24 18          	mov    0x18(%esp),%eax
c01031d5:	2b 44 24 20          	sub    0x20(%esp),%eax
c01031d9:	74 3a                	je     c0103215 <printf+0x705>
c01031db:	89 6c 24 04          	mov    %ebp,0x4(%esp)
c01031df:	89 5c 24 2c          	mov    %ebx,0x2c(%esp)
c01031e3:	89 d5                	mov    %edx,%ebp
c01031e5:	89 c3                	mov    %eax,%ebx
c01031e7:	89 f6                	mov    %esi,%esi
c01031e9:	8d bc 27 00 00 00 00 	lea    0x0(%edi,%eiz,1),%edi
c01031f0:	83 ec 0c             	sub    $0xc,%esp
c01031f3:	6a 20                	push   $0x20
c01031f5:	e8 e6 0b 00 00       	call   c0103de0 <putchar>
c01031fa:	83 c4 10             	add    $0x10,%esp
c01031fd:	83 f8 ff             	cmp    $0xffffffff,%eax
c0103200:	0f 84 c7 f9 ff ff    	je     c0102bcd <printf+0xbd>
c0103206:	83 c5 01             	add    $0x1,%ebp
c0103209:	39 dd                	cmp    %ebx,%ebp
c010320b:	75 e3                	jne    c01031f0 <printf+0x6e0>
c010320d:	8b 6c 24 04          	mov    0x4(%esp),%ebp
c0103211:	8b 5c 24 2c          	mov    0x2c(%esp),%ebx
c0103215:	f7 c7 08 00 00 00    	test   $0x8,%edi
c010321b:	0f 84 6f 05 00 00    	je     c0103790 <printf+0xc80>
c0103221:	83 ec 0c             	sub    $0xc,%esp
c0103224:	6a 2b                	push   $0x2b
c0103226:	e8 b5 0b 00 00       	call   c0103de0 <putchar>
c010322b:	83 c4 10             	add    $0x10,%esp
c010322e:	83 f8 ff             	cmp    $0xffffffff,%eax
c0103231:	0f 84 96 f9 ff ff    	je     c0102bcd <printf+0xbd>
c0103237:	80 7c 24 27 00       	cmpb   $0x0,0x27(%esp)
c010323c:	74 2f                	je     c010326d <printf+0x75d>
c010323e:	83 ec 0c             	sub    $0xc,%esp
c0103241:	6a 30                	push   $0x30
c0103243:	e8 98 0b 00 00       	call   c0103de0 <putchar>
c0103248:	83 c4 10             	add    $0x10,%esp
c010324b:	83 f8 ff             	cmp    $0xffffffff,%eax
c010324e:	0f 84 79 f9 ff ff    	je     c0102bcd <printf+0xbd>
c0103254:	0f b6 45 00          	movzbl 0x0(%ebp),%eax
c0103258:	83 ec 0c             	sub    $0xc,%esp
c010325b:	50                   	push   %eax
c010325c:	e8 7f 0b 00 00       	call   c0103de0 <putchar>
c0103261:	83 c4 10             	add    $0x10,%esp
c0103264:	83 f8 ff             	cmp    $0xffffffff,%eax
c0103267:	0f 84 60 f9 ff ff    	je     c0102bcd <printf+0xbd>
c010326d:	80 7c 24 10 01       	cmpb   $0x1,0x10(%esp)
c0103272:	c6 44 24 04 20       	movb   $0x20,0x4(%esp)
c0103277:	0f 84 4c 07 00 00    	je     c01039c9 <printf+0xeb9>
c010327d:	3b 5c 24 1c          	cmp    0x1c(%esp),%ebx
c0103281:	0f 83 87 05 00 00    	jae    c010380e <printf+0xcfe>
c0103287:	89 74 24 10          	mov    %esi,0x10(%esp)
c010328b:	89 de                	mov    %ebx,%esi
c010328d:	8b 5c 24 1c          	mov    0x1c(%esp),%ebx
c0103291:	eb 18                	jmp    c01032ab <printf+0x79b>
c0103293:	8d b6 00 00 00 00    	lea    0x0(%esi),%esi
c0103299:	8d bc 27 00 00 00 00 	lea    0x0(%edi,%eiz,1),%edi
c01032a0:	83 c6 01             	add    $0x1,%esi
c01032a3:	39 f3                	cmp    %esi,%ebx
c01032a5:	0f 84 5f 05 00 00    	je     c010380a <printf+0xcfa>
c01032ab:	83 ec 0c             	sub    $0xc,%esp
c01032ae:	6a 30                	push   $0x30
c01032b0:	e8 2b 0b 00 00       	call   c0103de0 <putchar>
c01032b5:	83 c4 10             	add    $0x10,%esp
c01032b8:	83 f8 ff             	cmp    $0xffffffff,%eax
c01032bb:	75 e3                	jne    c01032a0 <printf+0x790>
c01032bd:	e9 0b f9 ff ff       	jmp    c0102bcd <printf+0xbd>
c01032c2:	8b 74 24 0c          	mov    0xc(%esp),%esi
c01032c6:	85 f6                	test   %esi,%esi
c01032c8:	0f 89 1a fd ff ff    	jns    c0102fe8 <printf+0x4d8>
c01032ce:	e9 10 fd ff ff       	jmp    c0102fe3 <printf+0x4d3>
c01032d3:	8b 44 24 10          	mov    0x10(%esp),%eax
c01032d7:	bb 01 00 00 00       	mov    $0x1,%ebx
c01032dc:	be 01 00 00 00       	mov    $0x1,%esi
c01032e1:	8d 48 04             	lea    0x4(%eax),%ecx
c01032e4:	8b 00                	mov    (%eax),%eax
c01032e6:	89 4c 24 28          	mov    %ecx,0x28(%esp)
c01032ea:	83 f8 09             	cmp    $0x9,%eax
c01032ed:	89 44 24 18          	mov    %eax,0x18(%esp)
c01032f1:	76 15                	jbe    c0103308 <printf+0x7f8>
c01032f3:	89 c1                	mov    %eax,%ecx
c01032f5:	8d 1c 9b             	lea    (%ebx,%ebx,4),%ebx
c01032f8:	31 d2                	xor    %edx,%edx
c01032fa:	89 c8                	mov    %ecx,%eax
c01032fc:	83 c6 01             	add    $0x1,%esi
c01032ff:	01 db                	add    %ebx,%ebx
c0103301:	f7 f3                	div    %ebx
c0103303:	83 f8 09             	cmp    $0x9,%eax
c0103306:	77 ed                	ja     c01032f5 <printf+0x7e5>
c0103308:	8b 44 24 0c          	mov    0xc(%esp),%eax
c010330c:	85 c0                	test   %eax,%eax
c010330e:	75 0e                	jne    c010331e <printf+0x80e>
c0103310:	8b 44 24 18          	mov    0x18(%esp),%eax
c0103314:	85 c0                	test   %eax,%eax
c0103316:	b8 00 00 00 00       	mov    $0x0,%eax
c010331b:	0f 44 f0             	cmove  %eax,%esi
c010331e:	8b 44 24 0c          	mov    0xc(%esp),%eax
c0103322:	85 c0                	test   %eax,%eax
c0103324:	89 44 24 10          	mov    %eax,0x10(%esp)
c0103328:	0f 88 92 07 00 00    	js     c0103ac0 <printf+0xfb0>
c010332e:	39 c6                	cmp    %eax,%esi
c0103330:	0f 83 8a 07 00 00    	jae    c0103ac0 <printf+0xfb0>
c0103336:	89 f8                	mov    %edi,%eax
c0103338:	89 f9                	mov    %edi,%ecx
c010333a:	83 e0 0c             	and    $0xc,%eax
c010333d:	3c 01                	cmp    $0x1,%al
c010333f:	8b 44 24 10          	mov    0x10(%esp),%eax
c0103343:	83 d8 ff             	sbb    $0xffffffff,%eax
c0103346:	89 c2                	mov    %eax,%edx
c0103348:	83 c0 02             	add    $0x2,%eax
c010334b:	83 e1 02             	and    $0x2,%ecx
c010334e:	88 4c 24 27          	mov    %cl,0x27(%esp)
c0103352:	8b 4c 24 08          	mov    0x8(%esp),%ecx
c0103356:	0f 44 c2             	cmove  %edx,%eax
c0103359:	89 44 24 1c          	mov    %eax,0x1c(%esp)
c010335d:	39 c8                	cmp    %ecx,%eax
c010335f:	89 4c 24 14          	mov    %ecx,0x14(%esp)
c0103363:	0f 87 2b 07 00 00    	ja     c0103a94 <printf+0xf84>
c0103369:	8b 4c 24 14          	mov    0x14(%esp),%ecx
c010336d:	39 4c 24 04          	cmp    %ecx,0x4(%esp)
c0103371:	0f 82 56 f8 ff ff    	jb     c0102bcd <printf+0xbd>
c0103377:	89 f8                	mov    %edi,%eax
c0103379:	83 e0 11             	and    $0x11,%eax
c010337c:	88 44 24 20          	mov    %al,0x20(%esp)
c0103380:	75 39                	jne    c01033bb <printf+0x8ab>
c0103382:	31 d2                	xor    %edx,%edx
c0103384:	8b 44 24 14          	mov    0x14(%esp),%eax
c0103388:	2b 44 24 1c          	sub    0x1c(%esp),%eax
c010338c:	89 44 24 04          	mov    %eax,0x4(%esp)
c0103390:	74 29                	je     c01033bb <printf+0x8ab>
c0103392:	89 5c 24 2c          	mov    %ebx,0x2c(%esp)
c0103396:	89 d3                	mov    %edx,%ebx
c0103398:	83 ec 0c             	sub    $0xc,%esp
c010339b:	6a 20                	push   $0x20
c010339d:	e8 3e 0a 00 00       	call   c0103de0 <putchar>
c01033a2:	83 c4 10             	add    $0x10,%esp
c01033a5:	83 f8 ff             	cmp    $0xffffffff,%eax
c01033a8:	0f 84 1f f8 ff ff    	je     c0102bcd <printf+0xbd>
c01033ae:	83 c3 01             	add    $0x1,%ebx
c01033b1:	3b 5c 24 04          	cmp    0x4(%esp),%ebx
c01033b5:	75 e1                	jne    c0103398 <printf+0x888>
c01033b7:	8b 5c 24 2c          	mov    0x2c(%esp),%ebx
c01033bb:	f7 c7 08 00 00 00    	test   $0x8,%edi
c01033c1:	0f 85 da 06 00 00    	jne    c0103aa1 <printf+0xf91>
c01033c7:	f7 c7 04 00 00 00    	test   $0x4,%edi
c01033cd:	74 16                	je     c01033e5 <printf+0x8d5>
c01033cf:	83 ec 0c             	sub    $0xc,%esp
c01033d2:	6a 20                	push   $0x20
c01033d4:	e8 07 0a 00 00       	call   c0103de0 <putchar>
c01033d9:	83 c4 10             	add    $0x10,%esp
c01033dc:	83 f8 ff             	cmp    $0xffffffff,%eax
c01033df:	0f 84 e8 f7 ff ff    	je     c0102bcd <printf+0xbd>
c01033e5:	80 7c 24 27 00       	cmpb   $0x0,0x27(%esp)
c01033ea:	74 2f                	je     c010341b <printf+0x90b>
c01033ec:	83 ec 0c             	sub    $0xc,%esp
c01033ef:	6a 30                	push   $0x30
c01033f1:	e8 ea 09 00 00       	call   c0103de0 <putchar>
c01033f6:	83 c4 10             	add    $0x10,%esp
c01033f9:	83 f8 ff             	cmp    $0xffffffff,%eax
c01033fc:	0f 84 cb f7 ff ff    	je     c0102bcd <printf+0xbd>
c0103402:	0f b6 45 01          	movzbl 0x1(%ebp),%eax
c0103406:	83 ec 0c             	sub    $0xc,%esp
c0103409:	50                   	push   %eax
c010340a:	e8 d1 09 00 00       	call   c0103de0 <putchar>
c010340f:	83 c4 10             	add    $0x10,%esp
c0103412:	83 f8 ff             	cmp    $0xffffffff,%eax
c0103415:	0f 84 b2 f7 ff ff    	je     c0102bcd <printf+0xbd>
c010341b:	80 7c 24 20 01       	cmpb   $0x1,0x20(%esp)
c0103420:	c6 44 24 04 20       	movb   $0x20,0x4(%esp)
c0103425:	0f 84 29 09 00 00    	je     c0103d54 <printf+0x1244>
c010342b:	3b 74 24 10          	cmp    0x10(%esp),%esi
c010342f:	0f 83 8d 07 00 00    	jae    c0103bc2 <printf+0x10b2>
c0103435:	89 f0                	mov    %esi,%eax
c0103437:	89 de                	mov    %ebx,%esi
c0103439:	89 c3                	mov    %eax,%ebx
c010343b:	eb 0d                	jmp    c010344a <printf+0x93a>
c010343d:	83 c3 01             	add    $0x1,%ebx
c0103440:	39 5c 24 10          	cmp    %ebx,0x10(%esp)
c0103444:	0f 84 76 07 00 00    	je     c0103bc0 <printf+0x10b0>
c010344a:	83 ec 0c             	sub    $0xc,%esp
c010344d:	6a 30                	push   $0x30
c010344f:	e8 8c 09 00 00       	call   c0103de0 <putchar>
c0103454:	83 c4 10             	add    $0x10,%esp
c0103457:	83 f8 ff             	cmp    $0xffffffff,%eax
c010345a:	75 e1                	jne    c010343d <printf+0x92d>
c010345c:	e9 6c f7 ff ff       	jmp    c0102bcd <printf+0xbd>
c0103461:	89 5c 24 1c          	mov    %ebx,0x1c(%esp)
c0103465:	e9 15 fd ff ff       	jmp    c010317f <printf+0x66f>
c010346a:	8b 4c 24 10          	mov    0x10(%esp),%ecx
c010346e:	83 c5 01             	add    $0x1,%ebp
c0103471:	89 c8                	mov    %ecx,%eax
c0103473:	83 c1 04             	add    $0x4,%ecx
c0103476:	8b 00                	mov    (%eax),%eax
c0103478:	89 4c 24 10          	mov    %ecx,0x10(%esp)
c010347c:	0f b6 4d 00          	movzbl 0x0(%ebp),%ecx
c0103480:	89 44 24 08          	mov    %eax,0x8(%esp)
c0103484:	e9 bd f8 ff ff       	jmp    c0102d46 <printf+0x236>
c0103489:	8d 45 01             	lea    0x1(%ebp),%eax
c010348c:	83 ec 0c             	sub    $0xc,%esp
c010348f:	89 44 24 5c          	mov    %eax,0x5c(%esp)
c0103493:	8b 44 24 1c          	mov    0x1c(%esp),%eax
c0103497:	8d 48 04             	lea    0x4(%eax),%ecx
c010349a:	8b 00                	mov    (%eax),%eax
c010349c:	89 4c 24 20          	mov    %ecx,0x20(%esp)
c01034a0:	89 44 24 1c          	mov    %eax,0x1c(%esp)
c01034a4:	50                   	push   %eax
c01034a5:	e8 e6 09 00 00       	call   c0103e90 <strlen>
c01034aa:	83 c4 10             	add    $0x10,%esp
c01034ad:	89 c3                	mov    %eax,%ebx
c01034af:	8b 4c 24 0c          	mov    0xc(%esp),%ecx
c01034b3:	8b 44 24 08          	mov    0x8(%esp),%eax
c01034b7:	89 ca                	mov    %ecx,%edx
c01034b9:	39 c3                	cmp    %eax,%ebx
c01034bb:	f7 d2                	not    %edx
c01034bd:	0f 47 c3             	cmova  %ebx,%eax
c01034c0:	c1 ea 1f             	shr    $0x1f,%edx
c01034c3:	39 c8                	cmp    %ecx,%eax
c01034c5:	89 44 24 08          	mov    %eax,0x8(%esp)
c01034c9:	7e 09                	jle    c01034d4 <printf+0x9c4>
c01034cb:	84 d2                	test   %dl,%dl
c01034cd:	0f 45 c1             	cmovne %ecx,%eax
c01034d0:	89 44 24 08          	mov    %eax,0x8(%esp)
c01034d4:	8b 4c 24 0c          	mov    0xc(%esp),%ecx
c01034d8:	39 cb                	cmp    %ecx,%ebx
c01034da:	89 c8                	mov    %ecx,%eax
c01034dc:	0f 86 da 03 00 00    	jbe    c01038bc <printf+0xdac>
c01034e2:	84 d2                	test   %dl,%dl
c01034e4:	0f 84 d2 03 00 00    	je     c01038bc <printf+0xdac>
c01034ea:	8b 4c 24 0c          	mov    0xc(%esp),%ecx
c01034ee:	39 4c 24 04          	cmp    %ecx,0x4(%esp)
c01034f2:	0f 82 d5 f6 ff ff    	jb     c0102bcd <printf+0xbd>
c01034f8:	8b 7c 24 10          	mov    0x10(%esp),%edi
c01034fc:	85 c0                	test   %eax,%eax
c01034fe:	8d 1c 07             	lea    (%edi,%eax,1),%ebx
c0103501:	75 18                	jne    c010351b <printf+0xa0b>
c0103503:	e9 ca 01 00 00       	jmp    c01036d2 <printf+0xbc2>
c0103508:	90                   	nop
c0103509:	8d b4 26 00 00 00 00 	lea    0x0(%esi,%eiz,1),%esi
c0103510:	83 c7 01             	add    $0x1,%edi
c0103513:	39 df                	cmp    %ebx,%edi
c0103515:	0f 84 b7 01 00 00    	je     c01036d2 <printf+0xbc2>
c010351b:	0f b6 07             	movzbl (%edi),%eax
c010351e:	83 ec 0c             	sub    $0xc,%esp
c0103521:	50                   	push   %eax
c0103522:	e8 b9 08 00 00       	call   c0103de0 <putchar>
c0103527:	83 c4 10             	add    $0x10,%esp
c010352a:	83 f8 ff             	cmp    $0xffffffff,%eax
c010352d:	75 e1                	jne    c0103510 <printf+0xa00>
c010352f:	e9 99 f6 ff ff       	jmp    c0102bcd <printf+0xbd>
c0103534:	8b 44 24 10          	mov    0x10(%esp),%eax
c0103538:	bb 01 00 00 00       	mov    $0x1,%ebx
c010353d:	be 01 00 00 00       	mov    $0x1,%esi
c0103542:	8d 48 04             	lea    0x4(%eax),%ecx
c0103545:	8b 00                	mov    (%eax),%eax
c0103547:	89 4c 24 28          	mov    %ecx,0x28(%esp)
c010354b:	83 f8 07             	cmp    $0x7,%eax
c010354e:	89 44 24 18          	mov    %eax,0x18(%esp)
c0103552:	76 1d                	jbe    c0103571 <printf+0xa61>
c0103554:	89 c1                	mov    %eax,%ecx
c0103556:	8d 76 00             	lea    0x0(%esi),%esi
c0103559:	8d bc 27 00 00 00 00 	lea    0x0(%edi,%eiz,1),%edi
c0103560:	c1 e3 03             	shl    $0x3,%ebx
c0103563:	31 d2                	xor    %edx,%edx
c0103565:	89 c8                	mov    %ecx,%eax
c0103567:	f7 f3                	div    %ebx
c0103569:	83 c6 01             	add    $0x1,%esi
c010356c:	83 f8 07             	cmp    $0x7,%eax
c010356f:	77 ef                	ja     c0103560 <printf+0xa50>
c0103571:	8b 44 24 0c          	mov    0xc(%esp),%eax
c0103575:	85 c0                	test   %eax,%eax
c0103577:	75 0e                	jne    c0103587 <printf+0xa77>
c0103579:	8b 44 24 18          	mov    0x18(%esp),%eax
c010357d:	85 c0                	test   %eax,%eax
c010357f:	b8 00 00 00 00       	mov    $0x0,%eax
c0103584:	0f 44 f0             	cmove  %eax,%esi
c0103587:	8b 44 24 0c          	mov    0xc(%esp),%eax
c010358b:	85 c0                	test   %eax,%eax
c010358d:	89 44 24 14          	mov    %eax,0x14(%esp)
c0103591:	0f 88 1c 03 00 00    	js     c01038b3 <printf+0xda3>
c0103597:	39 c6                	cmp    %eax,%esi
c0103599:	0f 83 14 03 00 00    	jae    c01038b3 <printf+0xda3>
c010359f:	89 f8                	mov    %edi,%eax
c01035a1:	89 f9                	mov    %edi,%ecx
c01035a3:	83 e0 0c             	and    $0xc,%eax
c01035a6:	3c 01                	cmp    $0x1,%al
c01035a8:	8b 44 24 14          	mov    0x14(%esp),%eax
c01035ac:	83 d8 ff             	sbb    $0xffffffff,%eax
c01035af:	89 c2                	mov    %eax,%edx
c01035b1:	83 c0 02             	add    $0x2,%eax
c01035b4:	83 e1 02             	and    $0x2,%ecx
c01035b7:	88 4c 24 27          	mov    %cl,0x27(%esp)
c01035bb:	8b 4c 24 08          	mov    0x8(%esp),%ecx
c01035bf:	0f 44 c2             	cmove  %edx,%eax
c01035c2:	89 44 24 20          	mov    %eax,0x20(%esp)
c01035c6:	39 c8                	cmp    %ecx,%eax
c01035c8:	89 4c 24 10          	mov    %ecx,0x10(%esp)
c01035cc:	76 08                	jbe    c01035d6 <printf+0xac6>
c01035ce:	89 44 24 08          	mov    %eax,0x8(%esp)
c01035d2:	89 44 24 10          	mov    %eax,0x10(%esp)
c01035d6:	8b 4c 24 10          	mov    0x10(%esp),%ecx
c01035da:	39 4c 24 04          	cmp    %ecx,0x4(%esp)
c01035de:	0f 82 e9 f5 ff ff    	jb     c0102bcd <printf+0xbd>
c01035e4:	89 f8                	mov    %edi,%eax
c01035e6:	83 e0 11             	and    $0x11,%eax
c01035e9:	88 44 24 1c          	mov    %al,0x1c(%esp)
c01035ed:	75 39                	jne    c0103628 <printf+0xb18>
c01035ef:	31 d2                	xor    %edx,%edx
c01035f1:	8b 44 24 10          	mov    0x10(%esp),%eax
c01035f5:	2b 44 24 20          	sub    0x20(%esp),%eax
c01035f9:	89 44 24 04          	mov    %eax,0x4(%esp)
c01035fd:	74 29                	je     c0103628 <printf+0xb18>
c01035ff:	89 6c 24 2c          	mov    %ebp,0x2c(%esp)
c0103603:	89 d5                	mov    %edx,%ebp
c0103605:	83 ec 0c             	sub    $0xc,%esp
c0103608:	6a 20                	push   $0x20
c010360a:	e8 d1 07 00 00       	call   c0103de0 <putchar>
c010360f:	83 c4 10             	add    $0x10,%esp
c0103612:	83 f8 ff             	cmp    $0xffffffff,%eax
c0103615:	0f 84 b2 f5 ff ff    	je     c0102bcd <printf+0xbd>
c010361b:	83 c5 01             	add    $0x1,%ebp
c010361e:	3b 6c 24 04          	cmp    0x4(%esp),%ebp
c0103622:	75 e1                	jne    c0103605 <printf+0xaf5>
c0103624:	8b 6c 24 2c          	mov    0x2c(%esp),%ebp
c0103628:	f7 c7 08 00 00 00    	test   $0x8,%edi
c010362e:	0f 84 0c 03 00 00    	je     c0103940 <printf+0xe30>
c0103634:	83 ec 0c             	sub    $0xc,%esp
c0103637:	6a 2b                	push   $0x2b
c0103639:	e8 a2 07 00 00       	call   c0103de0 <putchar>
c010363e:	83 c4 10             	add    $0x10,%esp
c0103641:	83 f8 ff             	cmp    $0xffffffff,%eax
c0103644:	0f 84 83 f5 ff ff    	je     c0102bcd <printf+0xbd>
c010364a:	80 7c 24 27 00       	cmpb   $0x0,0x27(%esp)
c010364f:	74 2f                	je     c0103680 <printf+0xb70>
c0103651:	83 ec 0c             	sub    $0xc,%esp
c0103654:	6a 30                	push   $0x30
c0103656:	e8 85 07 00 00       	call   c0103de0 <putchar>
c010365b:	83 c4 10             	add    $0x10,%esp
c010365e:	83 f8 ff             	cmp    $0xffffffff,%eax
c0103661:	0f 84 66 f5 ff ff    	je     c0102bcd <printf+0xbd>
c0103667:	0f b6 45 01          	movzbl 0x1(%ebp),%eax
c010366b:	83 ec 0c             	sub    $0xc,%esp
c010366e:	50                   	push   %eax
c010366f:	e8 6c 07 00 00       	call   c0103de0 <putchar>
c0103674:	83 c4 10             	add    $0x10,%esp
c0103677:	83 f8 ff             	cmp    $0xffffffff,%eax
c010367a:	0f 84 4d f5 ff ff    	je     c0102bcd <printf+0xbd>
c0103680:	80 7c 24 1c 01       	cmpb   $0x1,0x1c(%esp)
c0103685:	c6 44 24 04 20       	movb   $0x20,0x4(%esp)
c010368a:	0f 84 30 06 00 00    	je     c0103cc0 <printf+0x11b0>
c0103690:	3b 74 24 14          	cmp    0x14(%esp),%esi
c0103694:	0f 83 5a 04 00 00    	jae    c0103af4 <printf+0xfe4>
c010369a:	89 5c 24 1c          	mov    %ebx,0x1c(%esp)
c010369e:	8b 5c 24 14          	mov    0x14(%esp),%ebx
c01036a2:	eb 0b                	jmp    c01036af <printf+0xb9f>
c01036a4:	83 c6 01             	add    $0x1,%esi
c01036a7:	39 f3                	cmp    %esi,%ebx
c01036a9:	0f 84 41 04 00 00    	je     c0103af0 <printf+0xfe0>
c01036af:	83 ec 0c             	sub    $0xc,%esp
c01036b2:	6a 30                	push   $0x30
c01036b4:	e8 27 07 00 00       	call   c0103de0 <putchar>
c01036b9:	83 c4 10             	add    $0x10,%esp
c01036bc:	83 f8 ff             	cmp    $0xffffffff,%eax
c01036bf:	75 e3                	jne    c01036a4 <printf+0xb94>
c01036c1:	e9 07 f5 ff ff       	jmp    c0102bcd <printf+0xbd>
c01036c6:	89 74 24 08          	mov    %esi,0x8(%esp)
c01036ca:	8b 44 24 08          	mov    0x8(%esp),%eax
c01036ce:	89 44 24 0c          	mov    %eax,0xc(%esp)
c01036d2:	8b 7c 24 0c          	mov    0xc(%esp),%edi
c01036d6:	01 3c 24             	add    %edi,(%esp)
c01036d9:	8b 7c 24 14          	mov    0x14(%esp),%edi
c01036dd:	0f b6 45 01          	movzbl 0x1(%ebp),%eax
c01036e1:	89 7c 24 10          	mov    %edi,0x10(%esp)
c01036e5:	e9 46 f4 ff ff       	jmp    c0102b30 <printf+0x20>
c01036ea:	c7 44 24 08 00 00 00 	movl   $0x0,0x8(%esp)
c01036f1:	00 
c01036f2:	e9 4f f6 ff ff       	jmp    c0102d46 <printf+0x236>
c01036f7:	be 67 66 66 66       	mov    $0x66666667,%esi
c01036fc:	eb 48                	jmp    c0103746 <printf+0xc36>
c01036fe:	8b 44 24 0c          	mov    0xc(%esp),%eax
c0103702:	31 d2                	xor    %edx,%edx
c0103704:	83 ec 0c             	sub    $0xc,%esp
c0103707:	f7 f3                	div    %ebx
c0103709:	89 c1                	mov    %eax,%ecx
c010370b:	b8 cd cc cc cc       	mov    $0xcccccccd,%eax
c0103710:	f7 e3                	mul    %ebx
c0103712:	89 c8                	mov    %ecx,%eax
c0103714:	89 d3                	mov    %edx,%ebx
c0103716:	f7 ee                	imul   %esi
c0103718:	c1 eb 03             	shr    $0x3,%ebx
c010371b:	89 d0                	mov    %edx,%eax
c010371d:	89 ca                	mov    %ecx,%edx
c010371f:	c1 fa 1f             	sar    $0x1f,%edx
c0103722:	c1 f8 02             	sar    $0x2,%eax
c0103725:	29 d0                	sub    %edx,%eax
c0103727:	8d 04 80             	lea    (%eax,%eax,4),%eax
c010372a:	01 c0                	add    %eax,%eax
c010372c:	29 c1                	sub    %eax,%ecx
c010372e:	8d 41 30             	lea    0x30(%ecx),%eax
c0103731:	0f b6 c0             	movzbl %al,%eax
c0103734:	50                   	push   %eax
c0103735:	e8 a6 06 00 00       	call   c0103de0 <putchar>
c010373a:	83 c4 10             	add    $0x10,%esp
c010373d:	83 f8 ff             	cmp    $0xffffffff,%eax
c0103740:	0f 84 87 f4 ff ff    	je     c0102bcd <printf+0xbd>
c0103746:	83 fb 09             	cmp    $0x9,%ebx
c0103749:	77 b3                	ja     c01036fe <printf+0xbee>
c010374b:	83 ec 0c             	sub    $0xc,%esp
c010374e:	b8 cd cc cc cc       	mov    $0xcccccccd,%eax
c0103753:	8b 4c 24 18          	mov    0x18(%esp),%ecx
c0103757:	f7 e1                	mul    %ecx
c0103759:	89 d0                	mov    %edx,%eax
c010375b:	c1 e8 03             	shr    $0x3,%eax
c010375e:	8d 04 80             	lea    (%eax,%eax,4),%eax
c0103761:	01 c0                	add    %eax,%eax
c0103763:	29 c1                	sub    %eax,%ecx
c0103765:	89 c8                	mov    %ecx,%eax
c0103767:	83 c0 30             	add    $0x30,%eax
c010376a:	0f b6 c0             	movzbl %al,%eax
c010376d:	50                   	push   %eax
c010376e:	e8 6d 06 00 00       	call   c0103de0 <putchar>
c0103773:	83 c4 10             	add    $0x10,%esp
c0103776:	83 f8 ff             	cmp    $0xffffffff,%eax
c0103779:	0f 85 32 f9 ff ff    	jne    c01030b1 <printf+0x5a1>
c010377f:	e9 49 f4 ff ff       	jmp    c0102bcd <printf+0xbd>
c0103784:	8d b6 00 00 00 00    	lea    0x0(%esi),%esi
c010378a:	8d bf 00 00 00 00    	lea    0x0(%edi),%edi
c0103790:	f7 c7 04 00 00 00    	test   $0x4,%edi
c0103796:	0f 84 9b fa ff ff    	je     c0103237 <printf+0x727>
c010379c:	83 ec 0c             	sub    $0xc,%esp
c010379f:	6a 20                	push   $0x20
c01037a1:	e8 3a 06 00 00       	call   c0103de0 <putchar>
c01037a6:	83 c4 10             	add    $0x10,%esp
c01037a9:	83 f8 ff             	cmp    $0xffffffff,%eax
c01037ac:	0f 85 85 fa ff ff    	jne    c0103237 <printf+0x727>
c01037b2:	e9 16 f4 ff ff       	jmp    c0102bcd <printf+0xbd>
c01037b7:	89 f6                	mov    %esi,%esi
c01037b9:	8d bc 27 00 00 00 00 	lea    0x0(%edi,%eiz,1),%edi
c01037c0:	83 ec 0c             	sub    $0xc,%esp
c01037c3:	0f b6 44 24 18       	movzbl 0x18(%esp),%eax
c01037c8:	50                   	push   %eax
c01037c9:	e8 12 06 00 00       	call   c0103de0 <putchar>
c01037ce:	83 c4 10             	add    $0x10,%esp
c01037d1:	83 f8 ff             	cmp    $0xffffffff,%eax
c01037d4:	0f 84 f3 f3 ff ff    	je     c0102bcd <printf+0xbd>
c01037da:	83 fb 01             	cmp    $0x1,%ebx
c01037dd:	be 01 00 00 00       	mov    $0x1,%esi
c01037e2:	0f 84 48 f6 ff ff    	je     c0102e30 <printf+0x320>
c01037e8:	83 ec 0c             	sub    $0xc,%esp
c01037eb:	6a 20                	push   $0x20
c01037ed:	e8 ee 05 00 00       	call   c0103de0 <putchar>
c01037f2:	83 c4 10             	add    $0x10,%esp
c01037f5:	83 f8 ff             	cmp    $0xffffffff,%eax
c01037f8:	0f 84 cf f3 ff ff    	je     c0102bcd <printf+0xbd>
c01037fe:	83 c6 01             	add    $0x1,%esi
c0103801:	39 de                	cmp    %ebx,%esi
c0103803:	75 e3                	jne    c01037e8 <printf+0xcd8>
c0103805:	e9 26 f6 ff ff       	jmp    c0102e30 <printf+0x320>
c010380a:	8b 74 24 10          	mov    0x10(%esp),%esi
c010380e:	8b 44 24 14          	mov    0x14(%esp),%eax
c0103812:	85 c0                	test   %eax,%eax
c0103814:	75 78                	jne    c010388e <printf+0xd7e>
c0103816:	8b 44 24 0c          	mov    0xc(%esp),%eax
c010381a:	85 c0                	test   %eax,%eax
c010381c:	0f 85 a7 02 00 00    	jne    c0103ac9 <printf+0xfb9>
c0103822:	83 e7 10             	and    $0x10,%edi
c0103825:	74 2d                	je     c0103854 <printf+0xd44>
c0103827:	31 f6                	xor    %esi,%esi
c0103829:	8b 7c 24 18          	mov    0x18(%esp),%edi
c010382d:	2b 7c 24 20          	sub    0x20(%esp),%edi
c0103831:	0f be 5c 24 04       	movsbl 0x4(%esp),%ebx
c0103836:	74 1c                	je     c0103854 <printf+0xd44>
c0103838:	83 ec 0c             	sub    $0xc,%esp
c010383b:	53                   	push   %ebx
c010383c:	e8 9f 05 00 00       	call   c0103de0 <putchar>
c0103841:	83 c4 10             	add    $0x10,%esp
c0103844:	83 f8 ff             	cmp    $0xffffffff,%eax
c0103847:	0f 84 80 f3 ff ff    	je     c0102bcd <printf+0xbd>
c010384d:	83 c6 01             	add    $0x1,%esi
c0103850:	39 fe                	cmp    %edi,%esi
c0103852:	75 e4                	jne    c0103838 <printf+0xd28>
c0103854:	8b 7c 24 08          	mov    0x8(%esp),%edi
c0103858:	01 3c 24             	add    %edi,(%esp)
c010385b:	8d 45 01             	lea    0x1(%ebp),%eax
c010385e:	8b 7c 24 28          	mov    0x28(%esp),%edi
c0103862:	89 44 24 50          	mov    %eax,0x50(%esp)
c0103866:	0f b6 45 01          	movzbl 0x1(%ebp),%eax
c010386a:	89 7c 24 10          	mov    %edi,0x10(%esp)
c010386e:	e9 bd f2 ff ff       	jmp    c0102b30 <printf+0x20>
c0103873:	83 c0 30             	add    $0x30,%eax
c0103876:	83 ec 0c             	sub    $0xc,%esp
c0103879:	0f b6 c0             	movzbl %al,%eax
c010387c:	50                   	push   %eax
c010387d:	e8 5e 05 00 00       	call   c0103de0 <putchar>
c0103882:	83 c4 10             	add    $0x10,%esp
c0103885:	83 f8 ff             	cmp    $0xffffffff,%eax
c0103888:	0f 84 3f f3 ff ff    	je     c0102bcd <printf+0xbd>
c010388e:	83 fe 0f             	cmp    $0xf,%esi
c0103891:	0f 86 88 04 00 00    	jbe    c0103d1f <printf+0x120f>
c0103897:	8b 44 24 14          	mov    0x14(%esp),%eax
c010389b:	31 d2                	xor    %edx,%edx
c010389d:	f7 f6                	div    %esi
c010389f:	c1 ee 04             	shr    $0x4,%esi
c01038a2:	83 e0 0f             	and    $0xf,%eax
c01038a5:	3c 09                	cmp    $0x9,%al
c01038a7:	7e ca                	jle    c0103873 <printf+0xd63>
c01038a9:	0f b6 55 00          	movzbl 0x0(%ebp),%edx
c01038ad:	8d 44 10 df          	lea    -0x21(%eax,%edx,1),%eax
c01038b1:	eb c3                	jmp    c0103876 <printf+0xd66>
c01038b3:	89 74 24 14          	mov    %esi,0x14(%esp)
c01038b7:	e9 e3 fc ff ff       	jmp    c010359f <printf+0xa8f>
c01038bc:	8b 44 24 08          	mov    0x8(%esp),%eax
c01038c0:	39 44 24 04          	cmp    %eax,0x4(%esp)
c01038c4:	0f 82 03 f3 ff ff    	jb     c0102bcd <printf+0xbd>
c01038ca:	39 c3                	cmp    %eax,%ebx
c01038cc:	0f 83 f0 04 00 00    	jae    c0103dc2 <printf+0x12b2>
c01038d2:	83 e7 10             	and    $0x10,%edi
c01038d5:	0f 84 50 01 00 00    	je     c0103a2b <printf+0xf1b>
c01038db:	85 db                	test   %ebx,%ebx
c01038dd:	0f 84 b6 04 00 00    	je     c0103d99 <printf+0x1289>
c01038e3:	8b 7c 24 10          	mov    0x10(%esp),%edi
c01038e7:	8d 34 1f             	lea    (%edi,%ebx,1),%esi
c01038ea:	eb 0f                	jmp    c01038fb <printf+0xdeb>
c01038ec:	8d 74 26 00          	lea    0x0(%esi,%eiz,1),%esi
c01038f0:	83 c7 01             	add    $0x1,%edi
c01038f3:	39 fe                	cmp    %edi,%esi
c01038f5:	0f 84 9e 04 00 00    	je     c0103d99 <printf+0x1289>
c01038fb:	0f b6 07             	movzbl (%edi),%eax
c01038fe:	83 ec 0c             	sub    $0xc,%esp
c0103901:	50                   	push   %eax
c0103902:	e8 d9 04 00 00       	call   c0103de0 <putchar>
c0103907:	83 c4 10             	add    $0x10,%esp
c010390a:	83 f8 ff             	cmp    $0xffffffff,%eax
c010390d:	75 e1                	jne    c01038f0 <printf+0xde0>
c010390f:	e9 b9 f2 ff ff       	jmp    c0102bcd <printf+0xbd>
c0103914:	f7 c7 04 00 00 00    	test   $0x4,%edi
c010391a:	0f 84 5f f7 ff ff    	je     c010307f <printf+0x56f>
c0103920:	83 ec 0c             	sub    $0xc,%esp
c0103923:	6a 20                	push   $0x20
c0103925:	e8 b6 04 00 00       	call   c0103de0 <putchar>
c010392a:	83 c4 10             	add    $0x10,%esp
c010392d:	83 f8 ff             	cmp    $0xffffffff,%eax
c0103930:	0f 85 49 f7 ff ff    	jne    c010307f <printf+0x56f>
c0103936:	e9 92 f2 ff ff       	jmp    c0102bcd <printf+0xbd>
c010393b:	90                   	nop
c010393c:	8d 74 26 00          	lea    0x0(%esi,%eiz,1),%esi
c0103940:	f7 c7 04 00 00 00    	test   $0x4,%edi
c0103946:	0f 84 fe fc ff ff    	je     c010364a <printf+0xb3a>
c010394c:	83 ec 0c             	sub    $0xc,%esp
c010394f:	6a 20                	push   $0x20
c0103951:	e8 8a 04 00 00       	call   c0103de0 <putchar>
c0103956:	83 c4 10             	add    $0x10,%esp
c0103959:	83 f8 ff             	cmp    $0xffffffff,%eax
c010395c:	0f 85 e8 fc ff ff    	jne    c010364a <printf+0xb3a>
c0103962:	e9 66 f2 ff ff       	jmp    c0102bcd <printf+0xbd>
c0103967:	89 f6                	mov    %esi,%esi
c0103969:	8d bc 27 00 00 00 00 	lea    0x0(%edi,%eiz,1),%edi
c0103970:	83 ec 0c             	sub    $0xc,%esp
c0103973:	6a 2d                	push   $0x2d
c0103975:	e8 66 04 00 00       	call   c0103de0 <putchar>
c010397a:	83 c4 10             	add    $0x10,%esp
c010397d:	83 f8 ff             	cmp    $0xffffffff,%eax
c0103980:	0f 85 f9 f6 ff ff    	jne    c010307f <printf+0x56f>
c0103986:	e9 42 f2 ff ff       	jmp    c0102bcd <printf+0xbd>
c010398b:	90                   	nop
c010398c:	8d 74 26 00          	lea    0x0(%esi,%eiz,1),%esi
c0103990:	31 f6                	xor    %esi,%esi
c0103992:	8b 44 24 14          	mov    0x14(%esp),%eax
c0103996:	2b 44 24 10          	sub    0x10(%esp),%eax
c010399a:	89 44 24 04          	mov    %eax,0x4(%esp)
c010399e:	74 1f                	je     c01039bf <printf+0xeaf>
c01039a0:	83 ec 0c             	sub    $0xc,%esp
c01039a3:	6a 30                	push   $0x30
c01039a5:	e8 36 04 00 00       	call   c0103de0 <putchar>
c01039aa:	83 c4 10             	add    $0x10,%esp
c01039ad:	83 f8 ff             	cmp    $0xffffffff,%eax
c01039b0:	0f 84 17 f2 ff ff    	je     c0102bcd <printf+0xbd>
c01039b6:	83 c6 01             	add    $0x1,%esi
c01039b9:	3b 74 24 04          	cmp    0x4(%esp),%esi
c01039bd:	75 e1                	jne    c01039a0 <printf+0xe90>
c01039bf:	c6 44 24 04 30       	movb   $0x30,0x4(%esp)
c01039c4:	e9 c6 f6 ff ff       	jmp    c010308f <printf+0x57f>
c01039c9:	31 d2                	xor    %edx,%edx
c01039cb:	8b 44 24 18          	mov    0x18(%esp),%eax
c01039cf:	2b 44 24 20          	sub    0x20(%esp),%eax
c01039d3:	89 44 24 04          	mov    %eax,0x4(%esp)
c01039d7:	74 29                	je     c0103a02 <printf+0xef2>
c01039d9:	89 6c 24 10          	mov    %ebp,0x10(%esp)
c01039dd:	89 d5                	mov    %edx,%ebp
c01039df:	83 ec 0c             	sub    $0xc,%esp
c01039e2:	6a 30                	push   $0x30
c01039e4:	e8 f7 03 00 00       	call   c0103de0 <putchar>
c01039e9:	83 c4 10             	add    $0x10,%esp
c01039ec:	83 f8 ff             	cmp    $0xffffffff,%eax
c01039ef:	0f 84 d8 f1 ff ff    	je     c0102bcd <printf+0xbd>
c01039f5:	83 c5 01             	add    $0x1,%ebp
c01039f8:	3b 6c 24 04          	cmp    0x4(%esp),%ebp
c01039fc:	75 e1                	jne    c01039df <printf+0xecf>
c01039fe:	8b 6c 24 10          	mov    0x10(%esp),%ebp
c0103a02:	c6 44 24 04 30       	movb   $0x30,0x4(%esp)
c0103a07:	e9 71 f8 ff ff       	jmp    c010327d <printf+0x76d>
c0103a0c:	8b 4c 24 10          	mov    0x10(%esp),%ecx
c0103a10:	83 c5 02             	add    $0x2,%ebp
c0103a13:	89 c8                	mov    %ecx,%eax
c0103a15:	83 c1 04             	add    $0x4,%ecx
c0103a18:	8b 00                	mov    (%eax),%eax
c0103a1a:	89 4c 24 10          	mov    %ecx,0x10(%esp)
c0103a1e:	0f b6 4d 00          	movzbl 0x0(%ebp),%ecx
c0103a22:	89 44 24 0c          	mov    %eax,0xc(%esp)
c0103a26:	e9 3c f3 ff ff       	jmp    c0102d67 <printf+0x257>
c0103a2b:	8b 7c 24 08          	mov    0x8(%esp),%edi
c0103a2f:	31 f6                	xor    %esi,%esi
c0103a31:	29 df                	sub    %ebx,%edi
c0103a33:	74 1d                	je     c0103a52 <printf+0xf42>
c0103a35:	83 ec 0c             	sub    $0xc,%esp
c0103a38:	6a 20                	push   $0x20
c0103a3a:	e8 a1 03 00 00       	call   c0103de0 <putchar>
c0103a3f:	83 c4 10             	add    $0x10,%esp
c0103a42:	83 f8 ff             	cmp    $0xffffffff,%eax
c0103a45:	0f 84 82 f1 ff ff    	je     c0102bcd <printf+0xbd>
c0103a4b:	83 c6 01             	add    $0x1,%esi
c0103a4e:	39 fe                	cmp    %edi,%esi
c0103a50:	75 e3                	jne    c0103a35 <printf+0xf25>
c0103a52:	8b 7c 24 10          	mov    0x10(%esp),%edi
c0103a56:	85 db                	test   %ebx,%ebx
c0103a58:	8d 34 1f             	lea    (%edi,%ebx,1),%esi
c0103a5b:	75 1e                	jne    c0103a7b <printf+0xf6b>
c0103a5d:	e9 68 fc ff ff       	jmp    c01036ca <printf+0xbba>
c0103a62:	8d b4 26 00 00 00 00 	lea    0x0(%esi,%eiz,1),%esi
c0103a69:	8d bc 27 00 00 00 00 	lea    0x0(%edi,%eiz,1),%edi
c0103a70:	83 c7 01             	add    $0x1,%edi
c0103a73:	39 f7                	cmp    %esi,%edi
c0103a75:	0f 84 4f fc ff ff    	je     c01036ca <printf+0xbba>
c0103a7b:	0f b6 07             	movzbl (%edi),%eax
c0103a7e:	83 ec 0c             	sub    $0xc,%esp
c0103a81:	50                   	push   %eax
c0103a82:	e8 59 03 00 00       	call   c0103de0 <putchar>
c0103a87:	83 c4 10             	add    $0x10,%esp
c0103a8a:	83 f8 ff             	cmp    $0xffffffff,%eax
c0103a8d:	75 e1                	jne    c0103a70 <printf+0xf60>
c0103a8f:	e9 39 f1 ff ff       	jmp    c0102bcd <printf+0xbd>
c0103a94:	89 44 24 08          	mov    %eax,0x8(%esp)
c0103a98:	89 44 24 14          	mov    %eax,0x14(%esp)
c0103a9c:	e9 c8 f8 ff ff       	jmp    c0103369 <printf+0x859>
c0103aa1:	83 ec 0c             	sub    $0xc,%esp
c0103aa4:	6a 2b                	push   $0x2b
c0103aa6:	e8 35 03 00 00       	call   c0103de0 <putchar>
c0103aab:	83 c4 10             	add    $0x10,%esp
c0103aae:	83 f8 ff             	cmp    $0xffffffff,%eax
c0103ab1:	0f 85 2e f9 ff ff    	jne    c01033e5 <printf+0x8d5>
c0103ab7:	e9 11 f1 ff ff       	jmp    c0102bcd <printf+0xbd>
c0103abc:	8d 74 26 00          	lea    0x0(%esi,%eiz,1),%esi
c0103ac0:	89 74 24 10          	mov    %esi,0x10(%esp)
c0103ac4:	e9 6d f8 ff ff       	jmp    c0103336 <printf+0x826>
c0103ac9:	83 ec 0c             	sub    $0xc,%esp
c0103acc:	6a 30                	push   $0x30
c0103ace:	e8 0d 03 00 00       	call   c0103de0 <putchar>
c0103ad3:	83 c4 10             	add    $0x10,%esp
c0103ad6:	83 f8 ff             	cmp    $0xffffffff,%eax
c0103ad9:	0f 85 43 fd ff ff    	jne    c0103822 <printf+0xd12>
c0103adf:	e9 e9 f0 ff ff       	jmp    c0102bcd <printf+0xbd>
c0103ae4:	8d b6 00 00 00 00    	lea    0x0(%esi),%esi
c0103aea:	8d bf 00 00 00 00    	lea    0x0(%edi),%edi
c0103af0:	8b 5c 24 1c          	mov    0x1c(%esp),%ebx
c0103af4:	8b 74 24 18          	mov    0x18(%esp),%esi
c0103af8:	85 f6                	test   %esi,%esi
c0103afa:	0f 85 95 00 00 00    	jne    c0103b95 <printf+0x1085>
c0103b00:	8b 5c 24 0c          	mov    0xc(%esp),%ebx
c0103b04:	85 db                	test   %ebx,%ebx
c0103b06:	74 16                	je     c0103b1e <printf+0x100e>
c0103b08:	83 ec 0c             	sub    $0xc,%esp
c0103b0b:	6a 30                	push   $0x30
c0103b0d:	e8 ce 02 00 00       	call   c0103de0 <putchar>
c0103b12:	83 c4 10             	add    $0x10,%esp
c0103b15:	83 f8 ff             	cmp    $0xffffffff,%eax
c0103b18:	0f 84 af f0 ff ff    	je     c0102bcd <printf+0xbd>
c0103b1e:	83 e7 10             	and    $0x10,%edi
c0103b21:	74 2d                	je     c0103b50 <printf+0x1040>
c0103b23:	31 f6                	xor    %esi,%esi
c0103b25:	8b 7c 24 10          	mov    0x10(%esp),%edi
c0103b29:	2b 7c 24 20          	sub    0x20(%esp),%edi
c0103b2d:	0f be 5c 24 04       	movsbl 0x4(%esp),%ebx
c0103b32:	74 1c                	je     c0103b50 <printf+0x1040>
c0103b34:	83 ec 0c             	sub    $0xc,%esp
c0103b37:	53                   	push   %ebx
c0103b38:	e8 a3 02 00 00       	call   c0103de0 <putchar>
c0103b3d:	83 c4 10             	add    $0x10,%esp
c0103b40:	83 f8 ff             	cmp    $0xffffffff,%eax
c0103b43:	0f 84 84 f0 ff ff    	je     c0102bcd <printf+0xbd>
c0103b49:	83 c6 01             	add    $0x1,%esi
c0103b4c:	39 fe                	cmp    %edi,%esi
c0103b4e:	75 e4                	jne    c0103b34 <printf+0x1024>
c0103b50:	8b 7c 24 08          	mov    0x8(%esp),%edi
c0103b54:	01 3c 24             	add    %edi,(%esp)
c0103b57:	8d 45 01             	lea    0x1(%ebp),%eax
c0103b5a:	8b 7c 24 28          	mov    0x28(%esp),%edi
c0103b5e:	89 44 24 50          	mov    %eax,0x50(%esp)
c0103b62:	0f b6 45 01          	movzbl 0x1(%ebp),%eax
c0103b66:	89 7c 24 10          	mov    %edi,0x10(%esp)
c0103b6a:	e9 c1 ef ff ff       	jmp    c0102b30 <printf+0x20>
c0103b6f:	8b 44 24 18          	mov    0x18(%esp),%eax
c0103b73:	31 d2                	xor    %edx,%edx
c0103b75:	83 ec 0c             	sub    $0xc,%esp
c0103b78:	f7 f3                	div    %ebx
c0103b7a:	c1 eb 03             	shr    $0x3,%ebx
c0103b7d:	83 e0 07             	and    $0x7,%eax
c0103b80:	83 c0 30             	add    $0x30,%eax
c0103b83:	50                   	push   %eax
c0103b84:	e8 57 02 00 00       	call   c0103de0 <putchar>
c0103b89:	83 c4 10             	add    $0x10,%esp
c0103b8c:	83 f8 ff             	cmp    $0xffffffff,%eax
c0103b8f:	0f 84 38 f0 ff ff    	je     c0102bcd <printf+0xbd>
c0103b95:	83 fb 07             	cmp    $0x7,%ebx
c0103b98:	77 d5                	ja     c0103b6f <printf+0x105f>
c0103b9a:	83 ec 0c             	sub    $0xc,%esp
c0103b9d:	8b 44 24 24          	mov    0x24(%esp),%eax
c0103ba1:	83 e0 07             	and    $0x7,%eax
c0103ba4:	83 c0 30             	add    $0x30,%eax
c0103ba7:	50                   	push   %eax
c0103ba8:	e8 33 02 00 00       	call   c0103de0 <putchar>
c0103bad:	83 c4 10             	add    $0x10,%esp
c0103bb0:	83 f8 ff             	cmp    $0xffffffff,%eax
c0103bb3:	0f 85 65 ff ff ff    	jne    c0103b1e <printf+0x100e>
c0103bb9:	e9 0f f0 ff ff       	jmp    c0102bcd <printf+0xbd>
c0103bbe:	66 90                	xchg   %ax,%ax
c0103bc0:	89 f3                	mov    %esi,%ebx
c0103bc2:	8b 44 24 18          	mov    0x18(%esp),%eax
c0103bc6:	85 c0                	test   %eax,%eax
c0103bc8:	0f 85 a8 00 00 00    	jne    c0103c76 <printf+0x1166>
c0103bce:	8b 44 24 0c          	mov    0xc(%esp),%eax
c0103bd2:	85 c0                	test   %eax,%eax
c0103bd4:	74 16                	je     c0103bec <printf+0x10dc>
c0103bd6:	83 ec 0c             	sub    $0xc,%esp
c0103bd9:	6a 30                	push   $0x30
c0103bdb:	e8 00 02 00 00       	call   c0103de0 <putchar>
c0103be0:	83 c4 10             	add    $0x10,%esp
c0103be3:	83 f8 ff             	cmp    $0xffffffff,%eax
c0103be6:	0f 84 e1 ef ff ff    	je     c0102bcd <printf+0xbd>
c0103bec:	83 e7 10             	and    $0x10,%edi
c0103bef:	0f 84 5b ff ff ff    	je     c0103b50 <printf+0x1040>
c0103bf5:	31 f6                	xor    %esi,%esi
c0103bf7:	8b 7c 24 14          	mov    0x14(%esp),%edi
c0103bfb:	2b 7c 24 1c          	sub    0x1c(%esp),%edi
c0103bff:	0f be 5c 24 04       	movsbl 0x4(%esp),%ebx
c0103c04:	0f 84 46 ff ff ff    	je     c0103b50 <printf+0x1040>
c0103c0a:	83 ec 0c             	sub    $0xc,%esp
c0103c0d:	53                   	push   %ebx
c0103c0e:	e8 cd 01 00 00       	call   c0103de0 <putchar>
c0103c13:	83 c4 10             	add    $0x10,%esp
c0103c16:	83 f8 ff             	cmp    $0xffffffff,%eax
c0103c19:	0f 84 ae ef ff ff    	je     c0102bcd <printf+0xbd>
c0103c1f:	83 c6 01             	add    $0x1,%esi
c0103c22:	39 fe                	cmp    %edi,%esi
c0103c24:	75 e4                	jne    c0103c0a <printf+0x10fa>
c0103c26:	e9 25 ff ff ff       	jmp    c0103b50 <printf+0x1040>
c0103c2b:	90                   	nop
c0103c2c:	8d 74 26 00          	lea    0x0(%esi,%eiz,1),%esi
c0103c30:	8b 44 24 18          	mov    0x18(%esp),%eax
c0103c34:	31 d2                	xor    %edx,%edx
c0103c36:	83 ec 0c             	sub    $0xc,%esp
c0103c39:	f7 f3                	div    %ebx
c0103c3b:	89 c1                	mov    %eax,%ecx
c0103c3d:	b8 cd cc cc cc       	mov    $0xcccccccd,%eax
c0103c42:	f7 e3                	mul    %ebx
c0103c44:	b8 cd cc cc cc       	mov    $0xcccccccd,%eax
c0103c49:	89 d3                	mov    %edx,%ebx
c0103c4b:	f7 e1                	mul    %ecx
c0103c4d:	c1 eb 03             	shr    $0x3,%ebx
c0103c50:	89 d0                	mov    %edx,%eax
c0103c52:	c1 e8 03             	shr    $0x3,%eax
c0103c55:	8d 04 80             	lea    (%eax,%eax,4),%eax
c0103c58:	01 c0                	add    %eax,%eax
c0103c5a:	29 c1                	sub    %eax,%ecx
c0103c5c:	89 c8                	mov    %ecx,%eax
c0103c5e:	83 c0 30             	add    $0x30,%eax
c0103c61:	0f b6 c0             	movzbl %al,%eax
c0103c64:	50                   	push   %eax
c0103c65:	e8 76 01 00 00       	call   c0103de0 <putchar>
c0103c6a:	83 c4 10             	add    $0x10,%esp
c0103c6d:	83 f8 ff             	cmp    $0xffffffff,%eax
c0103c70:	0f 84 57 ef ff ff    	je     c0102bcd <printf+0xbd>
c0103c76:	83 fb 09             	cmp    $0x9,%ebx
c0103c79:	77 b5                	ja     c0103c30 <printf+0x1120>
c0103c7b:	83 ec 0c             	sub    $0xc,%esp
c0103c7e:	b8 cd cc cc cc       	mov    $0xcccccccd,%eax
c0103c83:	8b 4c 24 24          	mov    0x24(%esp),%ecx
c0103c87:	f7 e1                	mul    %ecx
c0103c89:	89 d0                	mov    %edx,%eax
c0103c8b:	c1 e8 03             	shr    $0x3,%eax
c0103c8e:	8d 04 80             	lea    (%eax,%eax,4),%eax
c0103c91:	01 c0                	add    %eax,%eax
c0103c93:	29 c1                	sub    %eax,%ecx
c0103c95:	89 c8                	mov    %ecx,%eax
c0103c97:	83 c0 30             	add    $0x30,%eax
c0103c9a:	0f b6 c0             	movzbl %al,%eax
c0103c9d:	50                   	push   %eax
c0103c9e:	e8 3d 01 00 00       	call   c0103de0 <putchar>
c0103ca3:	83 c4 10             	add    $0x10,%esp
c0103ca6:	83 f8 ff             	cmp    $0xffffffff,%eax
c0103ca9:	0f 85 3d ff ff ff    	jne    c0103bec <printf+0x10dc>
c0103caf:	e9 19 ef ff ff       	jmp    c0102bcd <printf+0xbd>
c0103cb4:	8d b6 00 00 00 00    	lea    0x0(%esi),%esi
c0103cba:	8d bf 00 00 00 00    	lea    0x0(%edi),%edi
c0103cc0:	31 d2                	xor    %edx,%edx
c0103cc2:	8b 44 24 10          	mov    0x10(%esp),%eax
c0103cc6:	2b 44 24 20          	sub    0x20(%esp),%eax
c0103cca:	89 44 24 04          	mov    %eax,0x4(%esp)
c0103cce:	74 29                	je     c0103cf9 <printf+0x11e9>
c0103cd0:	89 5c 24 1c          	mov    %ebx,0x1c(%esp)
c0103cd4:	89 d3                	mov    %edx,%ebx
c0103cd6:	83 ec 0c             	sub    $0xc,%esp
c0103cd9:	6a 30                	push   $0x30
c0103cdb:	e8 00 01 00 00       	call   c0103de0 <putchar>
c0103ce0:	83 c4 10             	add    $0x10,%esp
c0103ce3:	83 f8 ff             	cmp    $0xffffffff,%eax
c0103ce6:	0f 84 e1 ee ff ff    	je     c0102bcd <printf+0xbd>
c0103cec:	83 c3 01             	add    $0x1,%ebx
c0103cef:	3b 5c 24 04          	cmp    0x4(%esp),%ebx
c0103cf3:	75 e1                	jne    c0103cd6 <printf+0x11c6>
c0103cf5:	8b 5c 24 1c          	mov    0x1c(%esp),%ebx
c0103cf9:	c6 44 24 04 30       	movb   $0x30,0x4(%esp)
c0103cfe:	e9 8d f9 ff ff       	jmp    c0103690 <printf+0xb80>
c0103d03:	89 dd                	mov    %ebx,%ebp
c0103d05:	c7 44 24 0c 00 00 00 	movl   $0x0,0xc(%esp)
c0103d0c:	00 
c0103d0d:	e9 55 f0 ff ff       	jmp    c0102d67 <printf+0x257>
c0103d12:	c7 44 24 10 01 00 00 	movl   $0x1,0x10(%esp)
c0103d19:	00 
c0103d1a:	e9 b8 f2 ff ff       	jmp    c0102fd7 <printf+0x4c7>
c0103d1f:	0f b6 54 24 14       	movzbl 0x14(%esp),%edx
c0103d24:	83 e2 0f             	and    $0xf,%edx
c0103d27:	80 fa 09             	cmp    $0x9,%dl
c0103d2a:	8d 42 30             	lea    0x30(%edx),%eax
c0103d2d:	7e 08                	jle    c0103d37 <printf+0x1227>
c0103d2f:	0f b6 45 00          	movzbl 0x0(%ebp),%eax
c0103d33:	8d 44 02 df          	lea    -0x21(%edx,%eax,1),%eax
c0103d37:	83 ec 0c             	sub    $0xc,%esp
c0103d3a:	0f b6 c0             	movzbl %al,%eax
c0103d3d:	50                   	push   %eax
c0103d3e:	e8 9d 00 00 00       	call   c0103de0 <putchar>
c0103d43:	83 c4 10             	add    $0x10,%esp
c0103d46:	83 f8 ff             	cmp    $0xffffffff,%eax
c0103d49:	0f 85 d3 fa ff ff    	jne    c0103822 <printf+0xd12>
c0103d4f:	e9 79 ee ff ff       	jmp    c0102bcd <printf+0xbd>
c0103d54:	8b 44 24 14          	mov    0x14(%esp),%eax
c0103d58:	2b 44 24 1c          	sub    0x1c(%esp),%eax
c0103d5c:	c7 44 24 04 00 00 00 	movl   $0x0,0x4(%esp)
c0103d63:	00 
c0103d64:	89 44 24 20          	mov    %eax,0x20(%esp)
c0103d68:	74 25                	je     c0103d8f <printf+0x127f>
c0103d6a:	83 ec 0c             	sub    $0xc,%esp
c0103d6d:	6a 30                	push   $0x30
c0103d6f:	e8 6c 00 00 00       	call   c0103de0 <putchar>
c0103d74:	83 c4 10             	add    $0x10,%esp
c0103d77:	83 f8 ff             	cmp    $0xffffffff,%eax
c0103d7a:	0f 84 4d ee ff ff    	je     c0102bcd <printf+0xbd>
c0103d80:	83 44 24 04 01       	addl   $0x1,0x4(%esp)
c0103d85:	8b 44 24 04          	mov    0x4(%esp),%eax
c0103d89:	3b 44 24 20          	cmp    0x20(%esp),%eax
c0103d8d:	75 db                	jne    c0103d6a <printf+0x125a>
c0103d8f:	c6 44 24 04 30       	movb   $0x30,0x4(%esp)
c0103d94:	e9 92 f6 ff ff       	jmp    c010342b <printf+0x91b>
c0103d99:	8b 74 24 08          	mov    0x8(%esp),%esi
c0103d9d:	8d 76 00             	lea    0x0(%esi),%esi
c0103da0:	39 de                	cmp    %ebx,%esi
c0103da2:	0f 86 1e f9 ff ff    	jbe    c01036c6 <printf+0xbb6>
c0103da8:	83 ec 0c             	sub    $0xc,%esp
c0103dab:	83 c3 01             	add    $0x1,%ebx
c0103dae:	6a 20                	push   $0x20
c0103db0:	e8 2b 00 00 00       	call   c0103de0 <putchar>
c0103db5:	83 c4 10             	add    $0x10,%esp
c0103db8:	83 f8 ff             	cmp    $0xffffffff,%eax
c0103dbb:	75 e3                	jne    c0103da0 <printf+0x1290>
c0103dbd:	e9 0b ee ff ff       	jmp    c0102bcd <printf+0xbd>
c0103dc2:	8b 7c 24 08          	mov    0x8(%esp),%edi
c0103dc6:	89 d8                	mov    %ebx,%eax
c0103dc8:	89 7c 24 0c          	mov    %edi,0xc(%esp)
c0103dcc:	e9 27 f7 ff ff       	jmp    c01034f8 <printf+0x9e8>
c0103dd1:	66 90                	xchg   %ax,%ax
c0103dd3:	66 90                	xchg   %ax,%ax
c0103dd5:	66 90                	xchg   %ax,%ax
c0103dd7:	66 90                	xchg   %ax,%ax
c0103dd9:	66 90                	xchg   %ax,%ax
c0103ddb:	66 90                	xchg   %ax,%ax
c0103ddd:	66 90                	xchg   %ax,%ax
c0103ddf:	90                   	nop

c0103de0 <putchar>:
c0103de0:	53                   	push   %ebx
c0103de1:	83 ec 20             	sub    $0x20,%esp
c0103de4:	8b 5c 24 28          	mov    0x28(%esp),%ebx
c0103de8:	88 5c 24 17          	mov    %bl,0x17(%esp)
c0103dec:	6a 01                	push   $0x1
c0103dee:	8d 44 24 1b          	lea    0x1b(%esp),%eax
c0103df2:	50                   	push   %eax
c0103df3:	e8 e8 c5 ff ff       	call   c01003e0 <terminal_write>
c0103df8:	83 c4 28             	add    $0x28,%esp
c0103dfb:	89 d8                	mov    %ebx,%eax
c0103dfd:	5b                   	pop    %ebx
c0103dfe:	c3                   	ret    
c0103dff:	90                   	nop

c0103e00 <puts>:
c0103e00:	83 ec 14             	sub    $0x14,%esp
c0103e03:	ff 74 24 18          	pushl  0x18(%esp)
c0103e07:	68 45 51 10 c0       	push   $0xc0105145
c0103e0c:	e8 ff ec ff ff       	call   c0102b10 <printf>
c0103e11:	83 c4 1c             	add    $0x1c,%esp
c0103e14:	c3                   	ret    
c0103e15:	66 90                	xchg   %ax,%ax
c0103e17:	66 90                	xchg   %ax,%ax
c0103e19:	66 90                	xchg   %ax,%ax
c0103e1b:	66 90                	xchg   %ax,%ax
c0103e1d:	66 90                	xchg   %ax,%ax
c0103e1f:	90                   	nop

c0103e20 <memcpy>:
c0103e20:	56                   	push   %esi
c0103e21:	53                   	push   %ebx
c0103e22:	8b 5c 24 14          	mov    0x14(%esp),%ebx
c0103e26:	8b 44 24 0c          	mov    0xc(%esp),%eax
c0103e2a:	8b 74 24 10          	mov    0x10(%esp),%esi
c0103e2e:	85 db                	test   %ebx,%ebx
c0103e30:	74 1c                	je     c0103e4e <memcpy+0x2e>
c0103e32:	31 d2                	xor    %edx,%edx
c0103e34:	8d b6 00 00 00 00    	lea    0x0(%esi),%esi
c0103e3a:	8d bf 00 00 00 00    	lea    0x0(%edi),%edi
c0103e40:	0f b6 0c 16          	movzbl (%esi,%edx,1),%ecx
c0103e44:	88 0c 10             	mov    %cl,(%eax,%edx,1)
c0103e47:	83 c2 01             	add    $0x1,%edx
c0103e4a:	39 d3                	cmp    %edx,%ebx
c0103e4c:	75 f2                	jne    c0103e40 <memcpy+0x20>
c0103e4e:	5b                   	pop    %ebx
c0103e4f:	5e                   	pop    %esi
c0103e50:	c3                   	ret    
c0103e51:	66 90                	xchg   %ax,%ax
c0103e53:	66 90                	xchg   %ax,%ax
c0103e55:	66 90                	xchg   %ax,%ax
c0103e57:	66 90                	xchg   %ax,%ax
c0103e59:	66 90                	xchg   %ax,%ax
c0103e5b:	66 90                	xchg   %ax,%ax
c0103e5d:	66 90                	xchg   %ax,%ax
c0103e5f:	90                   	nop

c0103e60 <memset>:
c0103e60:	56                   	push   %esi
c0103e61:	53                   	push   %ebx
c0103e62:	8b 74 24 14          	mov    0x14(%esp),%esi
c0103e66:	8b 44 24 0c          	mov    0xc(%esp),%eax
c0103e6a:	0f b6 5c 24 10       	movzbl 0x10(%esp),%ebx
c0103e6f:	85 f6                	test   %esi,%esi
c0103e71:	8d 0c 30             	lea    (%eax,%esi,1),%ecx
c0103e74:	74 13                	je     c0103e89 <memset+0x29>
c0103e76:	89 c2                	mov    %eax,%edx
c0103e78:	90                   	nop
c0103e79:	8d b4 26 00 00 00 00 	lea    0x0(%esi,%eiz,1),%esi
c0103e80:	88 1a                	mov    %bl,(%edx)
c0103e82:	83 c2 01             	add    $0x1,%edx
c0103e85:	39 ca                	cmp    %ecx,%edx
c0103e87:	75 f7                	jne    c0103e80 <memset+0x20>
c0103e89:	5b                   	pop    %ebx
c0103e8a:	5e                   	pop    %esi
c0103e8b:	c3                   	ret    
c0103e8c:	66 90                	xchg   %ax,%ax
c0103e8e:	66 90                	xchg   %ax,%ax

c0103e90 <strlen>:
c0103e90:	8b 54 24 04          	mov    0x4(%esp),%edx
c0103e94:	31 c0                	xor    %eax,%eax
c0103e96:	80 3a 00             	cmpb   $0x0,(%edx)
c0103e99:	74 10                	je     c0103eab <strlen+0x1b>
c0103e9b:	90                   	nop
c0103e9c:	8d 74 26 00          	lea    0x0(%esi,%eiz,1),%esi
c0103ea0:	83 c0 01             	add    $0x1,%eax
c0103ea3:	80 3c 02 00          	cmpb   $0x0,(%edx,%eax,1)
c0103ea7:	75 f7                	jne    c0103ea0 <strlen+0x10>
c0103ea9:	f3 c3                	repz ret 
c0103eab:	f3 c3                	repz ret 
c0103ead:	66 90                	xchg   %ax,%ax
c0103eaf:	90                   	nop

c0103eb0 <malloc_pages>:
c0103eb0:	57                   	push   %edi
c0103eb1:	56                   	push   %esi
c0103eb2:	53                   	push   %ebx
c0103eb3:	8b 5c 24 10          	mov    0x10(%esp),%ebx
c0103eb7:	85 db                	test   %ebx,%ebx
c0103eb9:	0f 84 e1 00 00 00    	je     c0103fa0 <malloc_pages+0xf0>
c0103ebf:	a1 f0 e0 12 c0       	mov    0xc012e0f0,%eax
c0103ec4:	85 c0                	test   %eax,%eax
c0103ec6:	0f 84 e4 00 00 00    	je     c0103fb0 <malloc_pages+0x100>
c0103ecc:	a1 ec e0 12 c0       	mov    0xc012e0ec,%eax
c0103ed1:	8b 50 01             	mov    0x1(%eax),%edx
c0103ed4:	8d 7c 10 09          	lea    0x9(%eax,%edx,1),%edi
c0103ed8:	8b 15 e8 e0 12 c0    	mov    0xc012e0e8,%edx
c0103ede:	89 fe                	mov    %edi,%esi
c0103ee0:	29 fa                	sub    %edi,%edx
c0103ee2:	83 fa 04             	cmp    $0x4,%edx
c0103ee5:	76 69                	jbe    c0103f50 <malloc_pages+0xa0>
c0103ee7:	83 fa 11             	cmp    $0x11,%edx
c0103eea:	0f 86 90 00 00 00    	jbe    c0103f80 <malloc_pages+0xd0>
c0103ef0:	8d 4a f2             	lea    -0xe(%edx),%ecx
c0103ef3:	c6 06 00             	movb   $0x0,(%esi)
c0103ef6:	8d 46 05             	lea    0x5(%esi),%eax
c0103ef9:	89 4e 01             	mov    %ecx,0x1(%esi)
c0103efc:	89 4c 16 f7          	mov    %ecx,-0x9(%esi,%edx,1)
c0103f00:	8b 56 01             	mov    0x1(%esi),%edx
c0103f03:	8d 44 10 04          	lea    0x4(%eax,%edx,1),%eax
c0103f07:	a3 ec e0 12 c0       	mov    %eax,0xc012e0ec
c0103f0c:	83 ec 0c             	sub    $0xc,%esp
c0103f0f:	83 c3 01             	add    $0x1,%ebx
c0103f12:	53                   	push   %ebx
c0103f13:	c1 e3 0c             	shl    $0xc,%ebx
c0103f16:	e8 05 e3 ff ff       	call   c0102220 <alloc_page>
c0103f1b:	8b 0d ec e0 12 c0    	mov    0xc012e0ec,%ecx
c0103f21:	89 da                	mov    %ebx,%edx
c0103f23:	01 1d e8 e0 12 c0    	add    %ebx,0xc012e0e8
c0103f29:	8d 9b 00 f0 ff ff    	lea    -0x1000(%ebx),%ebx
c0103f2f:	83 c4 10             	add    $0x10,%esp
c0103f32:	8d 41 05             	lea    0x5(%ecx),%eax
c0103f35:	89 59 01             	mov    %ebx,0x1(%ecx)
c0103f38:	89 9c 10 00 f0 ff ff 	mov    %ebx,-0x1000(%eax,%edx,1)
c0103f3f:	c6 01 01             	movb   $0x1,(%ecx)
c0103f42:	5b                   	pop    %ebx
c0103f43:	5e                   	pop    %esi
c0103f44:	5f                   	pop    %edi
c0103f45:	c3                   	ret    
c0103f46:	8d 76 00             	lea    0x0(%esi),%esi
c0103f49:	8d bc 27 00 00 00 00 	lea    0x0(%edi,%eiz,1),%edi
c0103f50:	83 ec 0c             	sub    $0xc,%esp
c0103f53:	6a 01                	push   $0x1
c0103f55:	e8 c6 e2 ff ff       	call   c0102220 <alloc_page>
c0103f5a:	a1 e8 e0 12 c0       	mov    0xc012e0e8,%eax
c0103f5f:	83 c4 10             	add    $0x10,%esp
c0103f62:	8d 90 00 10 00 00    	lea    0x1000(%eax),%edx
c0103f68:	89 15 e8 e0 12 c0    	mov    %edx,0xc012e0e8
c0103f6e:	29 fa                	sub    %edi,%edx
c0103f70:	83 fa 11             	cmp    $0x11,%edx
c0103f73:	0f 87 77 ff ff ff    	ja     c0103ef0 <malloc_pages+0x40>
c0103f79:	83 fa 04             	cmp    $0x4,%edx
c0103f7c:	76 8e                	jbe    c0103f0c <malloc_pages+0x5c>
c0103f7e:	66 90                	xchg   %ax,%ax
c0103f80:	8b 46 01             	mov    0x1(%esi),%eax
c0103f83:	8d 44 02 fb          	lea    -0x5(%edx,%eax,1),%eax
c0103f87:	89 46 01             	mov    %eax,0x1(%esi)
c0103f8a:	89 44 06 05          	mov    %eax,0x5(%esi,%eax,1)
c0103f8e:	8b 46 01             	mov    0x1(%esi),%eax
c0103f91:	8d 44 06 09          	lea    0x9(%esi,%eax,1),%eax
c0103f95:	a3 ec e0 12 c0       	mov    %eax,0xc012e0ec
c0103f9a:	e9 6d ff ff ff       	jmp    c0103f0c <malloc_pages+0x5c>
c0103f9f:	90                   	nop
c0103fa0:	5b                   	pop    %ebx
c0103fa1:	31 c0                	xor    %eax,%eax
c0103fa3:	5e                   	pop    %esi
c0103fa4:	5f                   	pop    %edi
c0103fa5:	c3                   	ret    
c0103fa6:	8d 76 00             	lea    0x0(%esi),%esi
c0103fa9:	8d bc 27 00 00 00 00 	lea    0x0(%edi,%eiz,1),%edi
c0103fb0:	83 ec 0c             	sub    $0xc,%esp
c0103fb3:	6a 01                	push   $0x1
c0103fb5:	e8 66 e2 ff ff       	call   c0102220 <alloc_page>
c0103fba:	8d 90 00 10 00 00    	lea    0x1000(%eax),%edx
c0103fc0:	a3 ec e0 12 c0       	mov    %eax,0xc012e0ec
c0103fc5:	a3 f0 e0 12 c0       	mov    %eax,0xc012e0f0
c0103fca:	89 c7                	mov    %eax,%edi
c0103fcc:	83 c4 10             	add    $0x10,%esp
c0103fcf:	89 c6                	mov    %eax,%esi
c0103fd1:	89 15 e8 e0 12 c0    	mov    %edx,0xc012e0e8
c0103fd7:	e9 04 ff ff ff       	jmp    c0103ee0 <malloc_pages+0x30>
c0103fdc:	8d 74 26 00          	lea    0x0(%esi,%eiz,1),%esi

c0103fe0 <print_heap>:
c0103fe0:	57                   	push   %edi
c0103fe1:	56                   	push   %esi
c0103fe2:	8b 35 ec e0 12 c0    	mov    0xc012e0ec,%esi
c0103fe8:	53                   	push   %ebx
c0103fe9:	8b 1d f0 e0 12 c0    	mov    0xc012e0f0,%ebx
c0103fef:	39 f3                	cmp    %esi,%ebx
c0103ff1:	74 40                	je     c0104033 <print_heap+0x53>
c0103ff3:	8d b6 00 00 00 00    	lea    0x0(%esi),%esi
c0103ff9:	8d bc 27 00 00 00 00 	lea    0x0(%edi,%eiz,1),%edi
c0104000:	0f b6 3b             	movzbl (%ebx),%edi
c0104003:	83 ec 0c             	sub    $0xc,%esp
c0104006:	8b 73 01             	mov    0x1(%ebx),%esi
c0104009:	53                   	push   %ebx
c010400a:	e8 11 e0 ff ff       	call   c0102020 <get_physical_address>
c010400f:	89 3c 24             	mov    %edi,(%esp)
c0104012:	56                   	push   %esi
c0104013:	53                   	push   %ebx
c0104014:	50                   	push   %eax
c0104015:	68 4c 51 10 c0       	push   $0xc010514c
c010401a:	e8 f1 ea ff ff       	call   c0102b10 <printf>
c010401f:	8b 43 01             	mov    0x1(%ebx),%eax
c0104022:	8b 35 ec e0 12 c0    	mov    0xc012e0ec,%esi
c0104028:	83 c4 20             	add    $0x20,%esp
c010402b:	8d 5c 03 09          	lea    0x9(%ebx,%eax,1),%ebx
c010402f:	39 de                	cmp    %ebx,%esi
c0104031:	75 cd                	jne    c0104000 <print_heap+0x20>
c0104033:	0f b6 3e             	movzbl (%esi),%edi
c0104036:	83 ec 0c             	sub    $0xc,%esp
c0104039:	8b 5e 01             	mov    0x1(%esi),%ebx
c010403c:	56                   	push   %esi
c010403d:	e8 de df ff ff       	call   c0102020 <get_physical_address>
c0104042:	89 3c 24             	mov    %edi,(%esp)
c0104045:	53                   	push   %ebx
c0104046:	56                   	push   %esi
c0104047:	50                   	push   %eax
c0104048:	68 4c 51 10 c0       	push   $0xc010514c
c010404d:	e8 be ea ff ff       	call   c0102b10 <printf>
c0104052:	83 c4 20             	add    $0x20,%esp
c0104055:	5b                   	pop    %ebx
c0104056:	5e                   	pop    %esi
c0104057:	5f                   	pop    %edi
c0104058:	c3                   	ret    
c0104059:	8d b4 26 00 00 00 00 	lea    0x0(%esi,%eiz,1),%esi

c0104060 <malloc>:
c0104060:	55                   	push   %ebp
c0104061:	57                   	push   %edi
c0104062:	56                   	push   %esi
c0104063:	53                   	push   %ebx
c0104064:	83 ec 0c             	sub    $0xc,%esp
c0104067:	8b 5c 24 20          	mov    0x20(%esp),%ebx
c010406b:	85 db                	test   %ebx,%ebx
c010406d:	0f 84 6d 01 00 00    	je     c01041e0 <malloc+0x180>
c0104073:	8b 15 f0 e0 12 c0    	mov    0xc012e0f0,%edx
c0104079:	85 d2                	test   %edx,%edx
c010407b:	0f 84 9f 00 00 00    	je     c0104120 <malloc+0xc0>
c0104081:	8b 35 e8 e0 12 c0    	mov    0xc012e0e8,%esi
c0104087:	89 d1                	mov    %edx,%ecx
c0104089:	39 f2                	cmp    %esi,%edx
c010408b:	0f 83 91 00 00 00    	jae    c0104122 <malloc+0xc2>
c0104091:	8b 0d ec e0 12 c0    	mov    0xc012e0ec,%ecx
c0104097:	39 d1                	cmp    %edx,%ecx
c0104099:	72 1d                	jb     c01040b8 <malloc+0x58>
c010409b:	90                   	nop
c010409c:	8d 74 26 00          	lea    0x0(%esi,%eiz,1),%esi
c01040a0:	80 3a 00             	cmpb   $0x0,(%edx)
c01040a3:	8b 42 01             	mov    0x1(%edx),%eax
c01040a6:	75 08                	jne    c01040b0 <malloc+0x50>
c01040a8:	39 c3                	cmp    %eax,%ebx
c01040aa:	0f 86 f0 00 00 00    	jbe    c01041a0 <malloc+0x140>
c01040b0:	8d 54 02 09          	lea    0x9(%edx,%eax,1),%edx
c01040b4:	39 d1                	cmp    %edx,%ecx
c01040b6:	73 e8                	jae    c01040a0 <malloc+0x40>
c01040b8:	8b 41 01             	mov    0x1(%ecx),%eax
c01040bb:	8d 54 01 09          	lea    0x9(%ecx,%eax,1),%edx
c01040bf:	8d 42 05             	lea    0x5(%edx),%eax
c01040c2:	89 15 ec e0 12 c0    	mov    %edx,0xc012e0ec
c01040c8:	8d 4c 18 04          	lea    0x4(%eax,%ebx,1),%ecx
c01040cc:	39 ce                	cmp    %ecx,%esi
c01040ce:	73 35                	jae    c0104105 <malloc+0xa5>
c01040d0:	89 ce                	mov    %ecx,%esi
c01040d2:	c1 ea 0c             	shr    $0xc,%edx
c01040d5:	31 c0                	xor    %eax,%eax
c01040d7:	c1 ee 0c             	shr    $0xc,%esi
c01040da:	29 d6                	sub    %edx,%esi
c01040dc:	81 e1 ff 0f 00 00    	and    $0xfff,%ecx
c01040e2:	0f 95 c0             	setne  %al
c01040e5:	83 ec 0c             	sub    $0xc,%esp
c01040e8:	01 c6                	add    %eax,%esi
c01040ea:	56                   	push   %esi
c01040eb:	c1 e6 0c             	shl    $0xc,%esi
c01040ee:	e8 2d e1 ff ff       	call   c0102220 <alloc_page>
c01040f3:	8b 15 ec e0 12 c0    	mov    0xc012e0ec,%edx
c01040f9:	01 35 e8 e0 12 c0    	add    %esi,0xc012e0e8
c01040ff:	83 c4 10             	add    $0x10,%esp
c0104102:	8d 42 05             	lea    0x5(%edx),%eax
c0104105:	c6 02 01             	movb   $0x1,(%edx)
c0104108:	89 5a 01             	mov    %ebx,0x1(%edx)
c010410b:	89 1c 18             	mov    %ebx,(%eax,%ebx,1)
c010410e:	83 c4 0c             	add    $0xc,%esp
c0104111:	5b                   	pop    %ebx
c0104112:	5e                   	pop    %esi
c0104113:	5f                   	pop    %edi
c0104114:	5d                   	pop    %ebp
c0104115:	c3                   	ret    
c0104116:	8d 76 00             	lea    0x0(%esi),%esi
c0104119:	8d bc 27 00 00 00 00 	lea    0x0(%edi,%eiz,1),%edi
c0104120:	31 c9                	xor    %ecx,%ecx
c0104122:	8d 44 1a 09          	lea    0x9(%edx,%ebx,1),%eax
c0104126:	83 ec 0c             	sub    $0xc,%esp
c0104129:	31 d2                	xor    %edx,%edx
c010412b:	a9 ff 0f 00 00       	test   $0xfff,%eax
c0104130:	0f 95 c2             	setne  %dl
c0104133:	c1 e8 0c             	shr    $0xc,%eax
c0104136:	c1 e9 0c             	shr    $0xc,%ecx
c0104139:	01 d0                	add    %edx,%eax
c010413b:	29 c8                	sub    %ecx,%eax
c010413d:	50                   	push   %eax
c010413e:	e8 dd e0 ff ff       	call   c0102220 <alloc_page>
c0104143:	8d 48 05             	lea    0x5(%eax),%ecx
c0104146:	89 c5                	mov    %eax,%ebp
c0104148:	83 c4 10             	add    $0x10,%esp
c010414b:	c1 ed 0c             	shr    $0xc,%ebp
c010414e:	c6 00 01             	movb   $0x1,(%eax)
c0104151:	89 58 01             	mov    %ebx,0x1(%eax)
c0104154:	8d 34 19             	lea    (%ecx,%ebx,1),%esi
c0104157:	a3 ec e0 12 c0       	mov    %eax,0xc012e0ec
c010415c:	a3 f0 e0 12 c0       	mov    %eax,0xc012e0f0
c0104161:	8d 7e 04             	lea    0x4(%esi),%edi
c0104164:	89 1e                	mov    %ebx,(%esi)
c0104166:	89 fa                	mov    %edi,%edx
c0104168:	c1 ea 0c             	shr    $0xc,%edx
c010416b:	29 ea                	sub    %ebp,%edx
c010416d:	89 d5                	mov    %edx,%ebp
c010416f:	31 d2                	xor    %edx,%edx
c0104171:	81 e7 ff 0f 00 00    	and    $0xfff,%edi
c0104177:	0f 95 c2             	setne  %dl
c010417a:	89 d7                	mov    %edx,%edi
c010417c:	8d 54 3d 00          	lea    0x0(%ebp,%edi,1),%edx
c0104180:	c1 e2 0c             	shl    $0xc,%edx
c0104183:	01 c2                	add    %eax,%edx
c0104185:	89 c8                	mov    %ecx,%eax
c0104187:	89 15 e8 e0 12 c0    	mov    %edx,0xc012e0e8
c010418d:	83 c4 0c             	add    $0xc,%esp
c0104190:	5b                   	pop    %ebx
c0104191:	5e                   	pop    %esi
c0104192:	5f                   	pop    %edi
c0104193:	5d                   	pop    %ebp
c0104194:	c3                   	ret    
c0104195:	8d 74 26 00          	lea    0x0(%esi,%eiz,1),%esi
c0104199:	8d bc 27 00 00 00 00 	lea    0x0(%edi,%eiz,1),%edi
c01041a0:	29 d8                	sub    %ebx,%eax
c01041a2:	c6 02 01             	movb   $0x1,(%edx)
c01041a5:	8d 4a 05             	lea    0x5(%edx),%ecx
c01041a8:	83 f8 0c             	cmp    $0xc,%eax
c01041ab:	76 1e                	jbe    c01041cb <malloc+0x16b>
c01041ad:	89 5a 01             	mov    %ebx,0x1(%edx)
c01041b0:	8d 4a 05             	lea    0x5(%edx),%ecx
c01041b3:	89 5c 1a 05          	mov    %ebx,0x5(%edx,%ebx,1)
c01041b7:	8b 52 01             	mov    0x1(%edx),%edx
c01041ba:	8d 5c 11 04          	lea    0x4(%ecx,%edx,1),%ebx
c01041be:	8d 50 f7             	lea    -0x9(%eax),%edx
c01041c1:	c6 03 00             	movb   $0x0,(%ebx)
c01041c4:	89 53 01             	mov    %edx,0x1(%ebx)
c01041c7:	89 54 13 05          	mov    %edx,0x5(%ebx,%edx,1)
c01041cb:	83 c4 0c             	add    $0xc,%esp
c01041ce:	89 c8                	mov    %ecx,%eax
c01041d0:	5b                   	pop    %ebx
c01041d1:	5e                   	pop    %esi
c01041d2:	5f                   	pop    %edi
c01041d3:	5d                   	pop    %ebp
c01041d4:	c3                   	ret    
c01041d5:	8d 74 26 00          	lea    0x0(%esi,%eiz,1),%esi
c01041d9:	8d bc 27 00 00 00 00 	lea    0x0(%edi,%eiz,1),%edi
c01041e0:	83 c4 0c             	add    $0xc,%esp
c01041e3:	31 c0                	xor    %eax,%eax
c01041e5:	5b                   	pop    %ebx
c01041e6:	5e                   	pop    %esi
c01041e7:	5f                   	pop    %edi
c01041e8:	5d                   	pop    %ebp
c01041e9:	c3                   	ret    
c01041ea:	8d b6 00 00 00 00    	lea    0x0(%esi),%esi

c01041f0 <calloc>:
c01041f0:	56                   	push   %esi
c01041f1:	53                   	push   %ebx
c01041f2:	83 ec 10             	sub    $0x10,%esp
c01041f5:	8b 74 24 20          	mov    0x20(%esp),%esi
c01041f9:	8b 44 24 1c          	mov    0x1c(%esp),%eax
c01041fd:	0f af c6             	imul   %esi,%eax
c0104200:	50                   	push   %eax
c0104201:	e8 5a fe ff ff       	call   c0104060 <malloc>
c0104206:	83 c4 10             	add    $0x10,%esp
c0104209:	85 c0                	test   %eax,%eax
c010420b:	89 c3                	mov    %eax,%ebx
c010420d:	74 0f                	je     c010421e <calloc+0x2e>
c010420f:	83 ec 04             	sub    $0x4,%esp
c0104212:	56                   	push   %esi
c0104213:	6a 00                	push   $0x0
c0104215:	50                   	push   %eax
c0104216:	e8 45 fc ff ff       	call   c0103e60 <memset>
c010421b:	83 c4 10             	add    $0x10,%esp
c010421e:	83 c4 04             	add    $0x4,%esp
c0104221:	89 d8                	mov    %ebx,%eax
c0104223:	5b                   	pop    %ebx
c0104224:	5e                   	pop    %esi
c0104225:	c3                   	ret    
c0104226:	8d 76 00             	lea    0x0(%esi),%esi
c0104229:	8d bc 27 00 00 00 00 	lea    0x0(%edi,%eiz,1),%edi

c0104230 <free>:
c0104230:	57                   	push   %edi
c0104231:	56                   	push   %esi
c0104232:	53                   	push   %ebx
c0104233:	8b 44 24 10          	mov    0x10(%esp),%eax
c0104237:	85 c0                	test   %eax,%eax
c0104239:	74 64                	je     c010429f <free+0x6f>
c010423b:	8b 1d ec e0 12 c0    	mov    0xc012e0ec,%ebx
c0104241:	8d 50 fb             	lea    -0x5(%eax),%edx
c0104244:	c6 40 fb 00          	movb   $0x0,-0x5(%eax)
c0104248:	39 da                	cmp    %ebx,%edx
c010424a:	74 20                	je     c010426c <free+0x3c>
c010424c:	8b 70 fc             	mov    -0x4(%eax),%esi
c010424f:	8d 0c 30             	lea    (%eax,%esi,1),%ecx
c0104252:	80 79 04 00          	cmpb   $0x0,0x4(%ecx)
c0104256:	8d 79 04             	lea    0x4(%ecx),%edi
c0104259:	75 11                	jne    c010426c <free+0x3c>
c010425b:	39 fb                	cmp    %edi,%ebx
c010425d:	74 61                	je     c01042c0 <free+0x90>
c010425f:	8b 4f 01             	mov    0x1(%edi),%ecx
c0104262:	8d 4c 0e 09          	lea    0x9(%esi,%ecx,1),%ecx
c0104266:	89 48 fc             	mov    %ecx,-0x4(%eax)
c0104269:	89 0c 08             	mov    %ecx,(%eax,%ecx,1)
c010426c:	3b 15 f0 e0 12 c0    	cmp    0xc012e0f0,%edx
c0104272:	74 2b                	je     c010429f <free+0x6f>
c0104274:	89 d1                	mov    %edx,%ecx
c0104276:	2b 48 f7             	sub    -0x9(%eax),%ecx
c0104279:	80 79 f7 00          	cmpb   $0x0,-0x9(%ecx)
c010427d:	8d 59 f7             	lea    -0x9(%ecx),%ebx
c0104280:	75 1d                	jne    c010429f <free+0x6f>
c0104282:	3b 15 ec e0 12 c0    	cmp    0xc012e0ec,%edx
c0104288:	74 26                	je     c01042b0 <free+0x80>
c010428a:	8b 78 fc             	mov    -0x4(%eax),%edi
c010428d:	8d 4f 09             	lea    0x9(%edi),%ecx
c0104290:	01 4b 01             	add    %ecx,0x1(%ebx)
c0104293:	2b 50 f7             	sub    -0x9(%eax),%edx
c0104296:	8b 4a f8             	mov    -0x8(%edx),%ecx
c0104299:	8b 50 fc             	mov    -0x4(%eax),%edx
c010429c:	89 0c 10             	mov    %ecx,(%eax,%edx,1)
c010429f:	5b                   	pop    %ebx
c01042a0:	5e                   	pop    %esi
c01042a1:	5f                   	pop    %edi
c01042a2:	c3                   	ret    
c01042a3:	8d b6 00 00 00 00    	lea    0x0(%esi),%esi
c01042a9:	8d bc 27 00 00 00 00 	lea    0x0(%edi,%eiz,1),%edi
c01042b0:	89 1d ec e0 12 c0    	mov    %ebx,0xc012e0ec
c01042b6:	eb d2                	jmp    c010428a <free+0x5a>
c01042b8:	90                   	nop
c01042b9:	8d b4 26 00 00 00 00 	lea    0x0(%esi,%eiz,1),%esi
c01042c0:	89 15 ec e0 12 c0    	mov    %edx,0xc012e0ec
c01042c6:	eb 97                	jmp    c010425f <free+0x2f>
c01042c8:	90                   	nop
c01042c9:	8d b4 26 00 00 00 00 	lea    0x0(%esi,%eiz,1),%esi

c01042d0 <realloc>:
c01042d0:	57                   	push   %edi
c01042d1:	56                   	push   %esi
c01042d2:	53                   	push   %ebx
c01042d3:	8b 7c 24 14          	mov    0x14(%esp),%edi
c01042d7:	8b 74 24 10          	mov    0x10(%esp),%esi
c01042db:	83 ec 0c             	sub    $0xc,%esp
c01042de:	57                   	push   %edi
c01042df:	e8 7c fd ff ff       	call   c0104060 <malloc>
c01042e4:	83 c4 0c             	add    $0xc,%esp
c01042e7:	89 c3                	mov    %eax,%ebx
c01042e9:	57                   	push   %edi
c01042ea:	56                   	push   %esi
c01042eb:	50                   	push   %eax
c01042ec:	e8 2f fb ff ff       	call   c0103e20 <memcpy>
c01042f1:	89 34 24             	mov    %esi,(%esp)
c01042f4:	e8 37 ff ff ff       	call   c0104230 <free>
c01042f9:	83 c4 10             	add    $0x10,%esp
c01042fc:	89 d8                	mov    %ebx,%eax
c01042fe:	5b                   	pop    %ebx
c01042ff:	5e                   	pop    %esi
c0104300:	5f                   	pop    %edi
c0104301:	c3                   	ret    
c0104302:	66 90                	xchg   %ax,%ax
c0104304:	66 90                	xchg   %ax,%ax
c0104306:	66 90                	xchg   %ax,%ax
c0104308:	66 90                	xchg   %ax,%ax
c010430a:	66 90                	xchg   %ax,%ax
c010430c:	66 90                	xchg   %ax,%ax
c010430e:	66 90                	xchg   %ax,%ax

c0104310 <__do_global_ctors_aux>:
c0104310:	a1 b8 90 12 c0       	mov    0xc01290b8,%eax
c0104315:	83 f8 ff             	cmp    $0xffffffff,%eax
c0104318:	74 27                	je     c0104341 <__do_global_ctors_aux+0x31>
c010431a:	55                   	push   %ebp
c010431b:	89 e5                	mov    %esp,%ebp
c010431d:	53                   	push   %ebx
c010431e:	bb b8 90 12 c0       	mov    $0xc01290b8,%ebx
c0104323:	83 ec 04             	sub    $0x4,%esp
c0104326:	8d 76 00             	lea    0x0(%esi),%esi
c0104329:	8d bc 27 00 00 00 00 	lea    0x0(%edi,%eiz,1),%edi
c0104330:	83 eb 04             	sub    $0x4,%ebx
c0104333:	ff d0                	call   *%eax
c0104335:	8b 03                	mov    (%ebx),%eax
c0104337:	83 f8 ff             	cmp    $0xffffffff,%eax
c010433a:	75 f4                	jne    c0104330 <__do_global_ctors_aux+0x20>
c010433c:	83 c4 04             	add    $0x4,%esp
c010433f:	5b                   	pop    %ebx
c0104340:	5d                   	pop    %ebp
c0104341:	f3 c3                	repz ret 

Disassembly of section .init:

c0104343 <_init>:
c0104343:	55                   	push   %ebp
c0104344:	89 e5                	mov    %esp,%ebp
c0104346:	e8 b5 bd ff ff       	call   c0100100 <frame_dummy>
c010434b:	e8 c0 ff ff ff       	call   c0104310 <__do_global_ctors_aux>
c0104350:	5d                   	pop    %ebp
c0104351:	c3                   	ret    

Disassembly of section .fini:

c0104352 <_fini>:
c0104352:	55                   	push   %ebp
c0104353:	89 e5                	mov    %esp,%ebp
c0104355:	e8 26 bd ff ff       	call   c0100080 <__do_global_dtors_aux>
c010435a:	5d                   	pop    %ebp
c010435b:	c3                   	ret    
